(dp1
(I1
I3
tp2
F0.0015244084983747636
s(I3
I0
tp3
F0.0013536095560012283
s(I2
I1
tp4
F0.002399767428494003
s(I0
I3
tp5
F0.0011784187544428698
s(I4
I0
tp6
F0.00095773376448533832
s(I1
I2
tp7
F0.0024163783515069024
s(I3
I3
tp8
F0.014182055067910301
s(I4
I4
tp9
F0.009596572362737114
s(I2
I2
tp10
F0.006245366126093394
s(I4
I1
tp11
F0.0022884217696984717
s(I1
I1
tp12
F0.010581222686114772
s(I3
I2
tp13
F0.0042879740897307696
s(I0
I0
tp14
F0.017537235099384683
s(I0
I4
tp15
F0.0032622099044260426
s(I1
I4
tp16
F0.0013628370941128982
s(I2
I3
tp17
F0.0020377182630376407
s(I4
I2
tp18
F0.001765527594704852
s(I1
I0
tp19
F0.00068510058731504654
s(I0
I1
tp20
F0.00031877169962993518
s(I3
I1
tp21
F0.0020615971754315114
s(I2
I4
tp22
F0.0014276489046079774
s(I2
I0
tp23
F0.0023114156732948147
s(I4
I3
tp24
F0.0012715390325442333
s(I3
I4
tp25
F0.0016837373431543498
s(I0
I2
tp26
F0.0062391502524817991
s.