(dp1
S'orthogon'
p2
I17
sS'infinite-horizon'
p3
I12
sS'interchang'
p4
I12
sS'four'
p5
I107
sS'rank-ord'
p6
I3
sS'payoff'
p7
I60
sS'reshuffl'
p8
I3
sS'fast-grow'
p9
I1
sS'digit'
p10
I82
sS'yellow'
p11
I9
sS'ignit'
p12
I6
sS'fractal'
p13
I3
sS'disturb'
p14
I8
sS'prize'
p15
I22
sS'showcas'
p16
I9
sS'understock'
p17
I4
sS'multi-point'
p18
I4
sS're-posit'
p19
I3
sS'charter'
p20
I4
sS'histor'
p21
I162
sS'second'
p22
I261
sS'interdictor'
p23
I12
sS'dialogu'
p24
I4
sS'lookback'
p25
I6
sS'run-to-run'
p26
I6
sS'fossil'
p27
I17
sS'store-brand'
p28
I3
sS'preemptiv'
p29
I9
sS'ongo'
p30
I53
sS'avers'
p31
I110
sS'intellectu'
p32
I17
sS'kernel-bas'
p33
I2
sS'avert'
p34
I5
sS'herd'
p35
I11
sS'deterior'
p36
I50
sS'militari'
p37
I94
sS'k'
I67
sS'deregul'
p38
I8
sS'period-by-period'
p39
I2
sS'synchronis'
p40
I1
sS'controversi'
p41
I7
sS'golden'
p42
I1
sS'no-trad'
p43
I4
sS'shelf-lif'
p44
I2
sS'unif'
p45
I3
sS'brought'
p46
I15
sS'short-liv'
p47
I2
sS'topographi'
p48
I6
sS'unit'
p49
I375
sS'spoke'
p50
I6
sS'music'
p51
I33
sS'cyber-phys'
p52
I4
sS'centr'
p53
I2
sS'strike'
p54
I24
sS'human-caus'
p55
I2
sS'subsurfac'
p56
I6
sS'comorbid'
p57
I8
sS'relay'
p58
I12
sS'relax'
p59
I299
sS'relat'
p60
I795
sS'multi-channel'
p61
I6
sS'yahoo'
p62
I12
sS'notic'
p63
I9
sS'hurt'
p64
I19
sS'99'
p65
I2
sS'98'
p66
I2
sS'holm'
p67
I1
sS'tobit'
p68
I1
sS'90'
p69
I7
sS'93'
p70
I6
sS'hold'
p71
I181
sS'unpack'
p72
I3
sS'94'
p73
I1
sS'97'
p74
I3
sS'generaliz'
p75
I3
sS'accid'
p76
I36
sS'generalis'
p77
I4
sS'matroid'
p78
I12
sS'conceptu'
p79
I57
sS'rework'
p80
I6
sS'household'
p81
I34
sS'virtu'
p82
I2
sS'infus'
p83
I10
sS'misconnect'
p84
I3
sS'multiresolut'
p85
I5
sS'want'
p86
I57
sS'wind-turbin'
p87
I5
sS'shuffl'
p88
I3
sS'hoc'
p89
I23
sS'spreadsheet-bas'
p90
I7
sS'cylind'
p91
I2
sS'travel'
p92
I423
sS'bimod'
p93
I2
sS'classifi'
p94
I99
sS'revisit'
p95
I23
sS'hot'
p96
I12
sS'hop'
p97
I5
sS'symposium'
p98
I3
sS'perspect'
p99
I220
sS'energy-effici'
p100
I3
sS'phlebotomist'
p101
I2
sS'intra-firm'
p102
I4
sS'input-output'
p103
I10
sS'diagram'
p104
I34
sS'pre-ord'
p105
I3
sS'beauti'
p106
I2
sS'endang'
p107
I3
sS'reshap'
p108
I8
sS'unlicens'
p109
I7
sS'warfar'
p110
I9
sS'revolv'
p111
I2
sS'childhood'
p112
I7
sS'dispar'
p113
I23
sS'wing'
p114
I3
sS'wind'
p115
I180
sS'wine'
p116
I19
sS'origin'
p117
I216
sS'antivir'
p118
I14
sS'feedback'
p119
I116
sS'telecom'
p120
I11
sS'two-level'
p121
I17
sS'appar'
p122
I7
sS'vari'
p123
I232
sS'wait-tim'
p124
I2
sS'fit'
p125
I135
sS'unforeseen'
p126
I2
sS'fix'
p127
I315
sS'common-valu'
p128
I3
sS'knowledge-gradi'
p129
I7
sS'human-involv'
p130
I1
sS'hidden'
p131
I44
sS'easier'
p132
I27
sS'1-1e'
p133
I3
sS'recours'
p134
I63
sS'enrich'
p135
I10
sS'slate'
p136
I1
sS'rectangl'
p137
I5
sS'hypoxia'
p138
I3
sS'surgic'
p139
I62
sS'interrupt'
p140
I23
sS'sixteen'
p141
I1
sS'silver'
p142
I1
sS'scholar'
p143
I25
sS'lane-bas'
p144
I2
sS'accommod'
p145
I63
sS'debug'
p146
I7
sS'closed-form'
p147
I42
sS'healthcar'
p148
I215
sS'concord'
p149
I1
sS'laboratori'
p150
I82
sS'cloud-bas'
p151
I1
sS'competitorsproduct'
p152
I3
sS'commiss'
p153
I16
sS'meta-heurist'
p154
I14
sS'multipurpos'
p155
I1
sS'semiconductor'
p156
I40
sS'macroeconom'
p157
I7
sS'adapt'
p158
I317
sS'for-profit'
p159
I8
sS'rm'
p160
I1
sS'rn'
p161
I1
sS'credenti'
p162
I2
sS'impract'
p163
I13
sS'sensori'
p164
I7
sS'navig'
p165
I17
sS'low-qual'
p166
I4
sS'renegoti'
p167
I1
sS'shipper'
p168
I32
sS'reformul'
p169
I100
sS'on-premis'
p170
I3
sS'silicon'
p171
I5
sS'unabl'
p172
I15
sS'1970s'
p173
I6
sS'man-mad'
p174
I10
sS'confus'
p175
I5
sS'user-gener'
p176
I2
sS'polyhedron'
p177
I20
sS'shopper'
p178
I14
sS'mingl'
p179
I3
sS'multi-facil'
p180
I2
sS'wast'
p181
I53
sS'self-commit'
p182
I3
sS'misclassif'
p183
I12
sS'instruct'
p184
I17
sS'e-wast'
p185
I3
sS'multi-settl'
p186
I2
sS'bottom-up'
p187
I9
sS'evolut'
p188
I130
sS'underlin'
p189
I5
sS'master'
p190
I29
sS'listen'
p191
I5
sS'renter'
p192
I5
sS'sub-gam'
p193
I3
sS'wisdom'
p194
I16
sS'technic'
p195
I115
sS'outlay'
p196
I1
sS'tree'
p197
I203
sS'quantity-bas'
p198
I2
sS'travelersbehavior'
p199
I2
sS'project'
p200
I791
sS'pneumonia'
p201
I1
sS'fee-for-servic'
p202
I2
sS'resource-limit'
p203
I3
sS'spectrum'
p204
I39
sS'aforement'
p205
I4
sS'increment'
p206
I74
sS'low-resolut'
p207
I2
sS'incompat'
p208
I13
sS'dozen'
p209
I6
sS'irrevoc'
p210
I2
sS'piece-wis'
p211
I2
sS'misclassifi'
p212
I2
sS'simplifi'
p213
I53
sS'shall'
p214
I19
sS'object'
p215
I984
sS'vehicle-bas'
p216
I4
sS'y'
I2
sS'out-of-control'
p217
I4
sS'addict'
p218
I3
sS'letter'
p219
I4
sS'drought'
p220
I3
sS'cross-bord'
p221
I1
sS'professor'
p222
I9
sS'hospit'
p223
I402
sS'tech'
p224
I5
sS'hospic'
p225
I2
sS'detriment'
p226
I14
sS'came'
p227
I7
sS'sawmil'
p228
I4
sS'bomb'
p229
I8
sS'reactor'
p230
I8
sS'cheapli'
p231
I4
sS'microeconom'
p232
I5
sS'value-cr'
p233
I2
sS'advisori'
p234
I5
sS'socio-cognit'
p235
I1
sS'integer-valu'
p236
I2
sS'lethal'
p237
I3
sS'multi-echelon'
p238
I26
sS'non-monetari'
p239
I6
sS'layout'
p240
I65
sS'base-load'
p241
I3
sS'menu'
p242
I19
sS'restaur'
p243
I28
sS'theme'
p244
I14
sS'busi'
p245
I519
sS'rich'
p246
I47
sS'buse'
p247
I17
sS'plate'
p248
I5
sS'fleet-level'
p249
I2
sS'shortest-path'
p250
I6
sS'ceil'
p251
I3
sS'pocket'
p252
I4
sS'on-board'
p253
I2
sS'one-class'
p254
I3
sS'patch'
p255
I17
sS'0-norm'
p256
I1
sS'three-year'
p257
I3
sS'metadata'
p258
I4
sS'respond'
p259
I117
sS'fair'
p260
I120
sS'specialist'
p261
I6
sS'two-echelon'
p262
I13
sS'radius'
p263
I9
sS'result'
p264
I3021
sS'respons'
p265
I559
sS'fail'
p266
I102
sS'hero'
p267
I1
sS'best'
p268
I396
sS'heterogen'
p269
I237
sS'figur'
p270
I8
sS'score'
p271
I134
sS'inabl'
p272
I9
sS'men'
p273
I28
sS'extend'
p274
I432
sS'extens'
p275
I290
sS'macroscop'
p276
I14
sS'extent'
p277
I70
sS'toler'
p278
I50
sS'advertis'
p279
I214
sS'debt'
p280
I31
sS'logit'
p281
I50
sS'accident'
p282
I3
sS'axiomat'
p283
I8
sS'unemploy'
p284
I2
sS'nonabandon'
p285
I2
sS'co-optim'
p286
I8
sS'logic'
p287
I37
sS'countri'
p288
I143
sS'login'
p289
I3
sS'southeastern'
p290
I3
sS'compromis'
p291
I19
sS'unit-conting'
p292
I2
sS'assur'
p293
I26
sS'human-in-the-loop'
p294
I3
sS'wearabl'
p295
I1
sS'non-gener'
p296
I1
sS'2nd'
p297
I9
sS'250'
p298
I3
sS'summat'
p299
I4
sS'assum'
p300
I346
sS'summar'
p301
I60
sS'duplic'
p302
I6
sS'subsidi'
p303
I63
sS'eager'
p304
I2
sS'union'
p305
I15
sS'industry-wid'
p306
I2
sS'frontlin'
p307
I1
sS'much'
p308
I209
sS'dissatisfact'
p309
I3
sS'advers'
p310
I66
sS'hesit'
p311
I3
sS'life'
p312
I215
sS'regul'
p313
I125
sS'retrospect'
p314
I12
sS'eastern'
p315
I1
sS'worker'
p316
I110
sS'catchment'
p317
I1
sS'lift'
p318
I74
sS'child'
p319
I17
sS'subroutin'
p320
I6
sS'take-back'
p321
I14
sS'commerci'
p322
I116
sS'intak'
p323
I2
sS'brainstorm'
p324
I4
sS'employ'
p325
I291
sS'unsolv'
p326
I7
sS'marriag'
p327
I2
sS'biotech'
p328
I4
sS'step-down'
p329
I3
sS'stop-loss'
p330
I1
sS'award-win'
p331
I7
sS'toolkit'
p332
I12
sS'player'
p333
I195
sS'elicit'
p334
I86
sS'multi-skil'
p335
I5
sS'multiple-stag'
p336
I2
sS'format'
p337
I106
sS'split'
p338
I73
sS'prognost'
p339
I27
sS'prognosi'
p340
I6
sS'refil'
p341
I4
sS'ownership'
p342
I27
sS'refin'
p343
I55
sS'cytokin'
p344
I3
sS'tune'
p345
I29
sS'off-the-shelf'
p346
I4
sS're-configur'
p347
I2
sS'academia'
p348
I16
sS'ideat'
p349
I1
sS'legisl'
p350
I33
sS'unchang'
p351
I3
sS'constant-factor'
p352
I5
sS'ordin'
p353
I14
sS'e-procur'
p354
I4
sS'ex-ant'
p355
I13
sS'previous'
p356
I202
sS'easi'
p357
I74
sS'imperfect-inform'
p358
I1
sS'deterr'
p359
I3
sS'satellit'
p360
I12
sS'inventory-bas'
p361
I1
sS'endur'
p362
I3
sS'har'
p363
I10
sS'east'
p364
I1
sS'dual-asc'
p365
I2
sS'fortif'
p366
I2
sS'intermod'
p367
I34
sS'birth'
p368
I7
sS'shadow'
p369
I6
sS'high-demand'
p370
I2
sS'poset'
p371
I3
sS'measur'
p372
I969
sS'specif'
p373
I404
sS'remind'
p374
I5
sS'mixed-model'
p375
I4
sS'underli'
p376
I5
sS'battlefield'
p377
I6
sS'right'
p378
I97
sS'old'
p379
I26
sS'crowd'
p380
I34
sS'inventoryproduct'
p381
I3
sS'billboard'
p382
I3
sS'transmiss'
p383
I219
sS'bottom'
p384
I6
sS'speed-up'
p385
I6
sS'subclass'
p386
I11
sS'tornado'
p387
I7
sS'life-tim'
p388
I3
sS'condit'
p389
I868
sS'sensibl'
p390
I8
sS'depth-first'
p391
I1
sS'dental'
p392
I5
sS'one-period'
p393
I9
sS'clearer'
p394
I2
sS'colleg'
p395
I22
sS'emitt'
p396
I3
sS'high-resolut'
p397
I5
sS'two-channel'
p398
I2
sS'recollect'
p399
I2
sS'coars'
p400
I3
sS'markovian'
p401
I2
sS'regasif'
p402
I3
sS'creativ'
p403
I41
sS'resili'
p404
I66
sS'coauthor'
p405
I2
sS'fabric'
p406
I9
sS'suffici'
p407
I153
sS'tuberculosi'
p408
I4
sS'sub-assembl'
p409
I3
sS'support'
p410
I609
sS'happi'
p411
I4
sS'avail'
p412
I665
sS'width'
p413
I20
sS'step-by-step'
p414
I3
sS'overhead'
p415
I9
sS'retailersprofit'
p416
I2
sS'network-interdict'
p417
I1
sS'sequential-merg'
p418
I1
sS'offer'
p419
I581
sS'pagerank'
p420
I2
sS'safeguard'
p421
I2
sS'work-rel'
p422
I2
sS'metabolit'
p423
I4
sS'myopic'
p424
I44
sS'depreci'
p425
I7
sS'incentive-compat'
p426
I5
sS'pest'
p427
I1
sS'dissemin'
p428
I21
sS'150'
p429
I4
sS'later'
p430
I46
sS'158'
p431
I2
sS'tournament'
p432
I41
sS'proven'
p433
I38
sS'exist'
p434
I731
sS'dealer'
p435
I16
sS'floor'
p436
I19
sS'actor'
p437
I27
sS'flood'
p438
I13
sS'role'
p439
I348
sS'set-cov'
p440
I4
sS'presum'
p441
I3
sS'roll'
p442
I50
sS'underinvest'
p443
I3
sS'steamship'
p444
I3
sS'legitim'
p445
I5
sS'notif'
p446
I3
sS'intend'
p447
I49
sS'devot'
p448
I16
sS'intens'
p449
I148
sS'intent'
p450
I55
sS'multi-stor'
p451
I10
sS'finite-dimension'
p452
I2
sS'societ'
p453
I24
sS'glass'
p454
I8
sS'biomechan'
p455
I4
sS'geometr'
p456
I67
sS'time'
p457
I3098
sS'push'
p458
I20
sS'breadth'
p459
I8
sS'chain'
p460
I1204
sS'chair'
p461
I8
sS'retrofit'
p462
I6
sS'decid'
p463
I252
sS'uneven'
p464
I1
sS'catalyz'
p465
I1
sS'ad-auct'
p466
I1
sS'object-algebra'
p467
I2
sS'decis'
p468
I2764
sS'bicriteria'
p469
I7
sS'downtim'
p470
I8
sS'multivalu'
p471
I4
sS'two-way'
p472
I8
sS'knapsack'
p473
I75
sS'exact'
p474
I256
sS'overstock'
p475
I7
sS'solver'
p476
I292
sS'tear'
p477
I1
sS'teas'
p478
I4
sS'leftov'
p479
I7
sS'overarch'
p480
I2
sS'jobshop'
p481
I1
sS'makespan'
p482
I31
sS'team'
p483
I353
sS'prevent'
p484
I175
sS'arboresc'
p485
I5
sS'compens'
p486
I47
sS'sign'
p487
I22
sS'currenc'
p488
I19
sS'current'
p489
I533
sS'fifti'
p490
I2
sS'boost'
p491
I13
sS'meld'
p492
I1
sS'modif'
p493
I46
sS'uncompetit'
p494
I1
sS'address'
p495
I662
sS'along'
p496
I207
sS'day-of-week'
p497
I6
sS'decision-support'
p498
I7
sS'worldwid'
p499
I23
sS'queue'
p500
I540
sS'throughput'
p501
I112
sS'buss'
p502
I1
sS'job-shop'
p503
I1
sS'well-design'
p504
I6
sS'system-of-system'
p505
I1
sS'prefer'
p506
I459
sS'goodness-of-fit'
p507
I5
sS'fake'
p508
I2
sS'instal'
p509
I63
sS'forefront'
p510
I3
sS'queue-length'
p511
I8
sS'fresher'
p512
I1
sS'spatiotempor'
p513
I11
sS'two-paramet'
p514
I1
sS'wood'
p515
I13
sS'bender'
p516
I1
sS'scope'
p517
I53
sS'shared-us'
p518
I1
sS'afford'
p519
I32
sS'two-dimension'
p520
I19
sS'claus'
p521
I10
sS'all-unit'
p522
I6
sS'enhanc'
p523
I226
sS'visual'
p524
I84
sS'dualiti'
p525
I50
sS'load-bas'
p526
I2
sS'behalf'
p527
I5
sS'multi-famili'
p528
I3
sS'pretend'
p529
I2
sS'strain'
p530
I14
sS'vega'
p531
I1
sS'problemat'
p532
I5
sS'encapsul'
p533
I1
sS'unanticip'
p534
I2
sS'prophylaxi'
p535
I6
sS'matern'
p536
I5
sS'hider'
p537
I6
sS'recycl'
p538
I66
sS'winter'
p539
I3
sS'perimet'
p540
I7
sS'reconnaiss'
p541
I4
sS'parameter'
p542
I25
sS'five-year'
p543
I3
sS'petrochem'
p544
I3
sS'utility-maxim'
p545
I3
sS'spot'
p546
I117
sS'homophili'
p547
I3
sS'date'
p548
I89
sS'tri-level'
p549
I4
sS'data'
p550
I2632
sS'harmon'
p551
I4
sS'stress'
p552
I45
sS'conscious'
p553
I8
sS'st'
p554
I5
sS'truck'
p555
I71
sS're-assign'
p556
I2
sS'callabl'
p557
I6
sS'untest'
p558
I4
sS'se'
p559
I3
sS'epilepsi'
p560
I7
sS'disconnect'
p561
I11
sS'coalition-proof'
p562
I1
sS'panacea'
p563
I3
sS'monopol'
p564
I3
sS'order-up-to-level'
p565
I3
sS'work-in-process'
p566
I3
sS'civilian'
p567
I13
sS'smarter'
p568
I3
sS'nation'
p569
I132
sS'therebi'
p570
I43
sS'anteced'
p571
I11
sS'truckload'
p572
I12
sS'revers'
p573
I103
sS'revert'
p574
I5
sS'separ'
p575
I204
sS'single-machin'
p576
I7
sS'confid'
p577
I74
sS'compil'
p578
I16
sS'state-transit'
p579
I4
sS'receipt'
p580
I3
sS'post-anesthesia'
p581
I2
sS'breakthrough'
p582
I6
sS'contributor'
p583
I13
sS'sponsor'
p584
I40
sS'neighbourhood'
p585
I1
sS'container'
p586
I10
sS'two-fold'
p587
I2
sS'lagrangian'
p588
I3
sS'trauma'
p589
I5
sS'internet'
p590
I38
sS'formula'
p591
I57
sS'domest'
p592
I42
sS'million'
p593
I113
sS'envelop'
p594
I29
sS'outer-approxim'
p595
I3
sS'unpredict'
p596
I11
sS'reusabl'
p597
I7
sS'departur'
p598
I99
sS'2-stage'
p599
I7
sS'modest'
p600
I15
sS'unavoid'
p601
I6
sS'recov'
p602
I51
sS'punt'
p603
I3
sS'router'
p604
I5
sS'neglect'
p605
I17
sS'oper'
p606
I1687
sS'prioritis'
p607
I2
sS'improvis'
p608
I10
sS'tableaux'
p609
I3
sS'one'
p610
I1141
sS'symmetri'
p611
I27
sS'vote'
p612
I49
sS'open'
p613
I257
sS'lexicograph'
p614
I9
sS'l_2'
p615
I1
sS'convent'
p616
I103
sS'citi'
p617
I84
sS'2'
I277
sS'draft'
p618
I17
sS'conveni'
p619
I33
sS'cite'
p620
I9
sS'provinc'
p621
I5
sS'cost-reduc'
p622
I3
sS'artifact'
p623
I8
sS'logist'
p624
I245
sS'inventor'
p625
I13
sS'agent-bas'
p626
I59
sS'rival'
p627
I21
sS'non-stor'
p628
I2
sS'unproduct'
p629
I4
sS'micro-level'
p630
I6
sS'prospect'
p631
I39
sS'influenti'
p632
I19
sS'price-direct'
p633
I4
sS'argument'
p634
I32
sS'say'
p635
I12
sS'fertil'
p636
I4
sS'note'
p637
I19
sS'denomin'
p638
I3
sS'take'
p639
I456
sS'destroy'
p640
I14
sS'unfix'
p641
I2
sS'noth'
p642
I4
sS'printer'
p643
I3
sS'offload'
p644
I5
sS'buffer'
p645
I69
sS'domain-specif'
p646
I1
sS'butterfli'
p647
I2
sS'abus'
p648
I8
sS'multiag'
p649
I2
sS'allevi'
p650
I25
sS'drive'
p651
I115
sS'stigmat'
p652
I6
sS'long-stand'
p653
I3
sS'axi'
p654
I6
sS'multilevel'
p655
I10
sS'surplus'
p656
I56
sS'opportunist'
p657
I14
sS'parsimoni'
p658
I16
sS'arc-bas'
p659
I3
sS'biomedicin'
p660
I2
sS'unfinish'
p661
I2
sS'slot'
p662
I70
sS'slow'
p663
I38
sS'willingness-to-sel'
p664
I2
sS'transact'
p665
I177
sS'activ'
p666
I471
sS'pre-posit'
p667
I16
sS'three-phas'
p668
I6
sS'hockey'
p669
I6
sS'drop-ship'
p670
I3
sS'dissimilar'
p671
I12
sS'socio-demograph'
p672
I1
sS'outlet'
p673
I19
sS'requir'
p674
I913
sS'prime'
p675
I3
sS'artist'
p676
I5
sS'medium-s'
p677
I6
sS'spillov'
p678
I21
sS'pre-announc'
p679
I6
sS'borrow'
p680
I18
sS'twelv'
p681
I3
sS'renegotiation-proof'
p682
I2
sS'fixed-dimension'
p683
I2
sS'drawdown'
p684
I7
sS'surgeri'
p685
I69
sS'keyboard'
p686
I3
sS'deadlin'
p687
I53
sS'diver'
p688
I3
sS'televis'
p689
I16
sS'rule-bas'
p690
I7
sS'ubiquit'
p691
I10
sS'early-stag'
p692
I6
sS'small-scal'
p693
I5
sS'nondecreas'
p694
I1
sS'unichain'
p695
I3
sS'spars'
p696
I61
sS'screen'
p697
I195
sS'supermarket'
p698
I7
sS'spare'
p699
I56
sS'shortag'
p700
I68
sS'under-invest'
p701
I4
sS'consensus-build'
p702
I2
sS'radiologist'
p703
I7
sS'mani'
p704
I695
sS'backpack'
p705
I3
sS'minima'
p706
I7
sS'conflict-fre'
p707
I2
sS'3000'
p708
I3
sS'aerial'
p709
I15
sS'hyperplan'
p710
I7
sS'boat'
p711
I2
sS'curs'
p712
I8
sS'stretch'
p713
I4
sS'breath'
p714
I2
sS'gradient-bas'
p715
I7
sS'reconcili'
p716
I4
sS'reflex'
p717
I1
sS'jackknif'
p718
I2
sS'reliabilitysurviv'
p719
I2
sS'co-evolv'
p720
I1
sS'thousand'
p721
I42
sS'resolut'
p722
I46
sS'photon'
p723
I3
sS'catastroph'
p724
I32
sS'extant'
p725
I8
sS'former'
p726
I29
sS'jute'
p727
I1
sS'optimization-bas'
p728
I25
sS'non-random'
p729
I7
sS'shortfal'
p730
I28
sS'2-year'
p731
I2
sS'curricula'
p732
I5
sS'stockpil'
p733
I31
sS'self-interest'
p734
I8
sS'graphen'
p735
I3
sS'canon'
p736
I20
sS'convinc'
p737
I8
sS'warehous'
p738
I107
sS'least-squar'
p739
I8
sS'pursu'
p740
I30
sS'econom'
p741
I425
sS'binari'
p742
I120
sS'time-index'
p743
I3
sS'inconsist'
p744
I37
sS'pre-identifi'
p745
I2
sS'market-level'
p746
I5
sS'breakdown'
p747
I18
sS'value-driven'
p748
I1
sS'high-intens'
p749
I1
sS'extern'
p750
I135
sS'defi'
p751
I4
sS'by-product'
p752
I3
sS'piecewise-linear'
p753
I11
sS'traine'
p754
I1
sS'isotop'
p755
I3
sS'vacant'
p756
I5
sS'equilibr'
p757
I4
sS'quota-bas'
p758
I3
sS'dimension'
p759
I89
sS'model-bas'
p760
I24
sS'make-to-stock'
p761
I13
sS'summer'
p762
I6
sS'214'
p763
I3
sS'manifold'
p764
I7
sS'product-form'
p765
I1
sS'resp'
p766
I3
sS'rest'
p767
I18
sS'processs'
p768
I3
sS'incentiv'
p769
I26
sS'concentr'
p770
I56
sS're-plan'
p771
I4
sS'bioenergi'
p772
I6
sS'waitlist'
p773
I6
sS'interfirm'
p774
I3
sS'littl'
p775
I104
sS'color'
p776
I29
sS'exercis'
p777
I66
sS'coposit'
p778
I6
sS'around'
p779
I80
sS'pos'
p780
I1
sS'dark'
p781
I4
sS'regim'
p782
I126
sS'traffic'
p783
I583
sS'theory-bas'
p784
I5
sS'world'
p785
I182
sS'postal'
p786
I6
sS'duti'
p787
I22
sS'stationari'
p788
I70
sS'integ'
p789
I631
sS'newsvendor-typ'
p790
I4
sS'tsunami'
p791
I2
sS'quality-of-servic'
p792
I6
sS'inter'
p793
I4
sS'manag'
p794
I1592
sS'obstruct'
p795
I1
sS'sharehold'
p796
I6
sS'non-idl'
p797
I2
sS'satisfactori'
p798
I11
sS'k-mean'
p799
I2
sS'constitut'
p800
I19
sS'pod'
p801
I4
sS'tote'
p802
I3
sS'tube'
p803
I3
sS'definit'
p804
I72
sS'evolv'
p805
I114
sS'exit'
p806
I24
sS'caviti'
p807
I2
sS'911'
p808
I10
sS'refer'
p809
I124
sS'power'
p810
I615
sS'internship'
p811
I4
sS'bivari'
p812
I11
sS'rank-on'
p813
I6
sS'leadership'
p814
I35
sS'standpoint'
p815
I11
sS'appli'
p816
I850
sS'stone'
p817
I2
sS'newsboy'
p818
I2
sS'risk-avers'
p819
I52
sS'tumor'
p820
I38
sS'convex-concav'
p821
I3
sS'neighbor'
p822
I35
sS'act'
p823
I62
sS'industri'
p824
I706
sS'bond'
p825
I18
sS'skew'
p826
I9
sS'passenger-coach'
p827
I2
sS'effici'
p828
I1414
sS'homeland'
p829
I20
sS'surviv'
p830
I89
sS'homeless'
p831
I4
sS'asymptomat'
p832
I3
sS'pivot'
p833
I24
sS'denois'
p834
I2
sS'glean'
p835
I7
sS'franchis'
p836
I4
sS'resum'
p837
I4
sS'consumersproduct'
p838
I1
sS'bottl'
p839
I3
sS'cultiv'
p840
I5
sS'conclud'
p841
I81
sS'bundl'
p842
I94
sS'amplifi'
p843
I7
sS'up-tim'
p844
I1
sS'categor'
p845
I46
sS'conclus'
p846
I37
sS'pull'
p847
I18
sS'rush'
p848
I6
sS'multi-loc'
p849
I3
sS'algorithm'
p850
I2464
sS'time-consum'
p851
I10
sS'electromagnet'
p852
I2
sS'non-degener'
p853
I2
sS'taught'
p854
I21
sS'monopoli'
p855
I37
sS'pulp'
p856
I1
sS'eigenvector'
p857
I4
sS'gone'
p858
I3
sS'ad'
p859
I187
sS'creat'
p860
I400
sS'certain'
p861
I308
sS'al'
p862
I71
sS'follow-up'
p863
I9
sS'cream'
p864
I3
sS'demand-respons'
p865
I1
sS'googl'
p866
I2
sS'pre-pandem'
p867
I2
sS'collector'
p868
I4
sS'order-theoret'
p869
I1
sS'tight'
p870
I73
sS'collis'
p871
I8
sS'spatial'
p872
I174
sS'intertempor'
p873
I16
sS'bioga'
p874
I3
sS'cutting-plan'
p875
I12
sS'first-come-first-serv'
p876
I3
sS'double-end'
p877
I2
sS'iteration-complex'
p878
I4
sS'vocabulari'
p879
I3
sS'duopoli'
p880
I45
sS'antiretrovir'
p881
I6
sS'groom'
p882
I1
sS'mask'
p883
I9
sS'mimic'
p884
I20
sS'mass'
p885
I57
sS'cpu'
p886
I2
sS'influenza'
p887
I73
sS'consider'
p888
I246
sS'illustr'
p889
I549
sS'two-sid'
p890
I16
sS'code'
p891
I129
sS'upgrad'
p892
I52
sS'merchandis'
p893
I9
sS'city-pair'
p894
I3
sS'second-ord'
p895
I40
sS'unansw'
p896
I3
sS'airfar'
p897
I5
sS'lognorm'
p898
I3
sS'incap'
p899
I1
sS'ts'
p900
I1
sS'intertwin'
p901
I3
sS'tail'
p902
I58
sS'co-evolutionari'
p903
I1
sS'state-independ'
p904
I3
sS'norm'
p905
I34
sS'roadway'
p906
I6
sS'corollari'
p907
I4
sS'candid'
p908
I64
sS'salesperson'
p909
I4
sS'rebuild'
p910
I2
sS'strand'
p911
I3
sS'webmast'
p912
I5
sS'colleagu'
p913
I24
sS'price-bas'
p914
I6
sS'sand'
p915
I1
sS'adjust'
p916
I243
sS'small'
p917
I230
sS'enterpris'
p918
I71
sS'quicker'
p919
I5
sS'infinitesim'
p920
I5
sS'past'
p921
I163
sS'pass'
p922
I36
sS'suboptim'
p923
I38
sS'deleg'
p924
I14
sS'clock'
p925
I11
sS'section'
p926
I33
sS'biobject'
p927
I1
sS'delet'
p928
I9
sS'consumer-driven'
p929
I1
sS'method'
p930
I2488
sS'contrast'
p931
I131
sS'full'
p932
I129
sS'rank-bas'
p933
I1
sS'fixed-incom'
p934
I2
sS'inher'
p935
I82
sS'non-exponenti'
p936
I4
sS'loss-avers'
p937
I1
sS'sender'
p938
I4
sS'prior'
p939
I179
sS'therapeut'
p940
I6
sS'social'
p941
I608
sS'action'
p942
I229
sS'introductori'
p943
I15
sS'diamet'
p944
I17
sS'via'
p945
I357
sS'depart'
p946
I137
sS'buy-and-hold'
p947
I3
sS'low-rank'
p948
I12
sS'unbias'
p949
I14
sS'select'
p950
I788
sS'petroleum'
p951
I12
sS'uncapacit'
p952
I22
sS'automata'
p953
I3
sS'morn'
p954
I9
sS'offshor'
p955
I75
sS'6'
I25
sS'reachabl'
p956
I8
sS'door'
p957
I6
sS'branch-and-price-and-cut'
p958
I6
sS'hundr'
p959
I31
sS'post-decis'
p960
I3
sS'high-prior'
p961
I2
sS'diseconomi'
p962
I5
sS'uncov'
p963
I26
sS'r0'
p964
I1
sS'compani'
p965
I390
sS'cach'
p966
I14
sS'endpoint'
p967
I5
sS'apportion'
p968
I1
sS'supermodular'
p969
I11
sS'learn'
p970
I708
sS'male'
p971
I6
sS'prompt'
p972
I13
sS'scan'
p973
I29
sS'challeng'
p974
I673
sS'registr'
p975
I8
sS'accept'
p976
I151
sS'tabular'
p977
I8
sS'noncompli'
p978
I7
sS'gallon'
p979
I3
sS'huge'
p980
I34
sS'interconnect'
p981
I30
sS'taxi-in'
p982
I3
sS'voltag'
p983
I7
sS'simpl'
p984
I413
sS'industry-level'
p985
I3
sS'crowdfund'
p986
I6
sS'plant'
p987
I156
sS'referenc'
p988
I5
sS'variant'
p989
I138
sS'entrepreneurship'
p990
I19
sS'plane'
p991
I108
sS'biosurveil'
p992
I2
sS'inquiri'
p993
I3
sS'varianc'
p994
I161
sS'nonsmooth'
p995
I10
sS'rank-1'
p996
I3
sS'imageri'
p997
I4
sS'finite-s'
p998
I1
sS'constitu'
p999
I5
sS'trade'
p1000
I335
sS'branch-and-reduc'
p1001
I2
sS'paper'
p1002
I1646
sS'sell-through'
p1003
I3
sS'containership'
p1004
I3
sS'alli'
p1005
I5
sS'wrt'
p1006
I6
sS'reschedul'
p1007
I16
sS'sample-bas'
p1008
I3
sS'tri'
p1009
I72
sS'attacker-defend'
p1010
I9
sS'self-direct'
p1011
I4
sS'consign'
p1012
I7
sS'geotherm'
p1013
I3
sS'non-decreas'
p1014
I10
sS'burn-in'
p1015
I6
sS'authent'
p1016
I6
sS'achiev'
p1017
I415
sS'reactiv'
p1018
I27
sS'genom'
p1019
I17
sS'found'
p1020
I165
sS'valuat'
p1021
I194
sS'status'
p1022
I88
sS'multilater'
p1023
I3
sS'monoton'
p1024
I79
sS'procedur'
p1025
I479
sS'slowdown'
p1026
I3
sS'price-tak'
p1027
I6
sS'co-evolut'
p1028
I2
sS'operation'
p1029
I7
sS'reduct'
p1030
I224
sS'reconstitut'
p1031
I1
sS'agre'
p1032
I18
sS'mark-up'
p1033
I5
sS'nondomin'
p1034
I11
sS'super-effici'
p1035
I2
sS'research'
p1036
I1405
sS'bubbl'
p1037
I5
sS'smuggl'
p1038
I9
sS'occurr'
p1039
I36
sS'1-norm'
p1040
I5
sS'price-delay'
p1041
I4
sS'civil'
p1042
I10
sS'qualifi'
p1043
I17
sS'emplac'
p1044
I2
sS'proxi'
p1045
I14
sS'polyhedra'
p1046
I18
sS'lifestyl'
p1047
I3
sS'believ'
p1048
I39
sS'director'
p1049
I12
sS'test-b'
p1050
I1
sS'penetr'
p1051
I34
sS'carry-ov'
p1052
I2
sS'integrand'
p1053
I2
sS'major'
p1054
I366
sS'product-ded'
p1055
I3
sS'cross-effici'
p1056
I5
sS'number'
p1057
I1133
sS'feeder'
p1058
I5
sS'stand-cent'
p1059
I3
sS'guess'
p1060
I7
sS'guest'
p1061
I9
sS'jet'
p1062
I13
sS'exponenti'
p1063
I141
sS'multiproduct'
p1064
I5
sS'integer-ord'
p1065
I3
sS'risk-bas'
p1066
I9
sS'tradabl'
p1067
I12
sS'sortat'
p1068
I1
sS'illeg'
p1069
I3
sS'molecular'
p1070
I19
sS'model-fre'
p1071
I3
sS're-rout'
p1072
I8
sS'non-funct'
p1073
I1
sS'first-'
p1074
I3
sS'relationship'
p1075
I418
sS'consult'
p1076
I24
sS'false-name-proof'
p1077
I2
sS'suppliersproduct'
p1078
I2
sS'reus'
p1079
I22
sS'perfus'
p1080
I4
sS'arrang'
p1081
I35
sS'comput'
p1082
I1516
sS'beforehand'
p1083
I1
sS'defect'
p1084
I70
sS'packag'
p1085
I115
sS'single-'
p1086
I5
sS'requisit'
p1087
I4
sS'sell'
p1088
I334
sS'metabol'
p1089
I11
sS'equival'
p1090
I136
sS'ancillari'
p1091
I10
sS'self'
p1092
I8
sS'all-opt'
p1093
I2
sS'also'
p1094
I1562
sS'analogu'
p1095
I10
sS'population-level'
p1096
I3
sS'pipelin'
p1097
I40
sS'p-effici'
p1098
I4
sS'multiechelon'
p1099
I3
sS'virus'
p1100
I20
sS'plan'
p1101
I1201
sS'oyster'
p1102
I3
sS'micro-aggreg'
p1103
I2
sS'arson'
p1104
I2
sS'low-demand'
p1105
I3
sS'torus'
p1106
I1
sS'cover'
p1107
I193
sS'coven'
p1108
I4
sS'abnorm'
p1109
I16
sS'barrel'
p1110
I4
sS'golf'
p1111
I6
sS'jurisdict'
p1112
I10
sS'session'
p1113
I171
sS'monopolist'
p1114
I60
sS'freight'
p1115
I134
sS'reput'
p1116
I33
sS'affin'
p1117
I37
sS'abund'
p1118
I10
sS'impact'
p1119
I1320
sS'colloc'
p1120
I7
sS'ineffect'
p1121
I13
sS'equiti'
p1122
I82
sS'condor'
p1123
I1
sS'writer'
p1124
I3
sS'solut'
p1125
I1911
sS'snobbish'
p1126
I1
sS'factor'
p1127
I637
sS'light-tail'
p1128
I2
sS'remedi'
p1129
I21
sS'multi-decad'
p1130
I2
sS'mainten'
p1131
I212
sS'ambiti'
p1132
I5
sS'banner'
p1133
I3
sS'transship'
p1134
I44
sS'synthet'
p1135
I30
sS'synthes'
p1136
I19
sS'acut'
p1137
I14
sS'enemi'
p1138
I11
sS'system-level'
p1139
I11
sS'river'
p1140
I1
sS'set'
p1141
I1986
sS'creator'
p1142
I3
sS'overwhelm'
p1143
I7
sS'entropy-bas'
p1144
I2
sS'startup'
p1145
I17
sS'sex'
p1146
I12
sS'see'
p1147
I56
sS'non-linear'
p1148
I86
sS'sea'
p1149
I14
sS'risk-reward'
p1150
I3
sS'contour'
p1151
I5
sS'analog'
p1152
I28
sS'eman'
p1153
I4
sS'ergod'
p1154
I5
sS'pickup'
p1155
I23
sS'restructur'
p1156
I9
sS'thrive'
p1157
I4
sS'misspecif'
p1158
I10
sS'signatur'
p1159
I14
sS'open-access'
p1160
I5
sS'multi-task'
p1161
I2
sS'itemset'
p1162
I6
sS'pirat'
p1163
I6
sS'self-sustain'
p1164
I2
sS'dividend'
p1165
I6
sS'complementar'
p1166
I75
sS'bodi'
p1167
I34
sS'f'
I8
sS'last'
p1168
I109
sS'hyperlink'
p1169
I3
sS'retent'
p1170
I20
sS'pds'
p1171
I1
sS'multi-step'
p1172
I4
sS'enrout'
p1173
I3
sS'multi-prior'
p1174
I3
sS'long-term'
p1175
I122
sS'pdf'
p1176
I3
sS'whole'
p1177
I47
sS'load'
p1178
I262
sS'markdown'
p1179
I31
sS'episod'
p1180
I7
sS'schedul'
p1181
I1293
sS'loan'
p1182
I43
sS'unrealist'
p1183
I4
sS'church'
p1184
I1
sS'averag'
p1185
I297
sS'communiti'
p1186
I206
sS'entail'
p1187
I22
sS'lender'
p1188
I15
sS'over-capacit'
p1189
I3
sS'conveyor'
p1190
I1
sS'devic'
p1191
I104
sS'perpetu'
p1192
I7
sS'sinc'
p1193
I97
sS'hing'
p1194
I10
sS'devis'
p1195
I40
sS'firm'
p1196
I1549
sS'top-down'
p1197
I5
sS'fire'
p1198
I121
sS'infect'
p1199
I87
sS'notori'
p1200
I7
sS'consequenti'
p1201
I2
sS'fund'
p1202
I177
sS'multi-label'
p1203
I1
sS'choice-bas'
p1204
I6
sS'educ'
p1205
I85
sS'uncertain'
p1206
I347
sS'microbiom'
p1207
I7
sS'straight'
p1208
I4
sS'erron'
p1209
I5
sS'budget'
p1210
I180
sS'durat'
p1211
I122
sS'error'
p1212
I271
sS'order-pick'
p1213
I3
sS'phylogenet'
p1214
I8
sS'earli'
p1215
I166
sS'vol'
p1216
I2
sS'von'
p1217
I5
sS'captiv'
p1218
I5
sS're-tim'
p1219
I3
sS'funder'
p1220
I3
sS'vanish'
p1221
I5
sS'chase'
p1222
I3
sS'irrelev'
p1223
I12
sS'obsolet'
p1224
I3
sS'decoy'
p1225
I5
sS'shorten'
p1226
I3
sS'shorter'
p1227
I21
sS'2030'
p1228
I3
sS'anatom'
p1229
I1
sS'branch-cut-and-pric'
p1230
I3
sS'two-phas'
p1231
I24
sS'recenc'
p1232
I1
sS'alert'
p1233
I14
sS'cap-and-trad'
p1234
I6
sS'copula'
p1235
I16
sS'stack'
p1236
I8
sS'focal'
p1237
I14
sS'recent'
p1238
I487
sS'expend'
p1239
I5
sS'eleg'
p1240
I4
sS'person'
p1241
I123
sS'expens'
p1242
I116
sS'elev'
p1243
I11
sS'deplet'
p1244
I9
sS'academ'
p1245
I76
sS'firm-specif'
p1246
I3
sS'bilater'
p1247
I15
sS'countervail'
p1248
I2
sS'mandat'
p1249
I23
sS'firmsequilibrium'
p1250
I2
sS'data-bas'
p1251
I1
sS'time-window'
p1252
I3
sS'multi-year'
p1253
I12
sS'top-tier'
p1254
I3
sS'biopharmaceut'
p1255
I2
sS'technology-bas'
p1256
I2
sS'resource-bas'
p1257
I5
sS'best-cas'
p1258
I1
sS'transpar'
p1259
I34
sS'intuit'
p1260
I65
sS'basestock'
p1261
I3
sS'quest'
p1262
I2
sS'multi-suppli'
p1263
I2
sS'three-play'
p1264
I3
sS'abduct'
p1265
I4
sS'formal'
p1266
I65
sS'leisur'
p1267
I8
sS'd'
I17
sS'rehabilit'
p1268
I5
sS'consensus'
p1269
I22
sS'presidenti'
p1270
I8
sS'baggag'
p1271
I4
sS'encount'
p1272
I66
sS'epidemiolog'
p1273
I18
sS'acknowledg'
p1274
I4
sS'electroencephalogram'
p1275
I5
sS'sampl'
p1276
I440
sS'sight'
p1277
I2
sS'greener'
p1278
I3
sS'carryov'
p1279
I4
sS'battalion'
p1280
I2
sS'broadband'
p1281
I6
sS'pharmaceut'
p1282
I46
sS'multitask'
p1283
I9
sS'recognit'
p1284
I22
sS'recognis'
p1285
I3
sS'novelti'
p1286
I16
sS'machin'
p1287
I271
sS'ba'
p1288
I1
sS'agreement'
p1289
I54
sS'prerequisit'
p1290
I4
sS'gatekeep'
p1291
I4
sS'capabilities-bas'
p1292
I2
sS'mortgag'
p1293
I23
sS'coexist'
p1294
I5
sS'materi'
p1295
I202
sS'meta-model'
p1296
I5
sS'pre-process'
p1297
I10
sS'revolut'
p1298
I8
sS'repair'
p1299
I70
sS'last-minut'
p1300
I7
sS'primarili'
p1301
I35
sS'type-specif'
p1302
I3
sS'locus'
p1303
I2
sS'convexifi'
p1304
I5
sS'vis-vi'
p1305
I4
sS'durabl'
p1306
I47
sS'occupi'
p1307
I14
sS'span'
p1308
I59
sS'spam'
p1309
I2
sS'pareto-optim'
p1310
I2
sS'submit'
p1311
I47
sS'custom'
p1312
I1521
sS'suit'
p1313
I45
sS'blueprint'
p1314
I3
sS'mean-risk'
p1315
I9
sS'subgraph'
p1316
I30
sS'poly-logarithm'
p1317
I3
sS'decomposit'
p1318
I254
sS'link'
p1319
I340
sS'unblind'
p1320
I5
sS'atom'
p1321
I8
sS'line'
p1322
I265
sS'mitig'
p1323
I197
sS'two-prong'
p1324
I2
sS'spectroscopi'
p1325
I5
sS'us'
p1326
I157
sS'intim'
p1327
I3
sS'supervisor'
p1328
I5
sS'cross-train'
p1329
I33
sS'overland'
p1330
I3
sS'start-up'
p1331
I18
sS'chao'
p1332
I3
sS'log-norm'
p1333
I3
sS'chat'
p1334
I4
sS'near-decompos'
p1335
I1
sS'paradox'
p1336
I9
sS'invalid'
p1337
I3
sS'preempt'
p1338
I1
sS'furnac'
p1339
I1
sS'time-averag'
p1340
I2
sS'zeroth-ord'
p1341
I2
sS'ago'
p1342
I17
sS'lane'
p1343
I64
sS'land'
p1344
I53
sS'fighter'
p1345
I2
sS'wafer'
p1346
I35
sS'trail'
p1347
I8
sS'inaccuraci'
p1348
I12
sS'age'
p1349
I75
sS'discrimin'
p1350
I41
sS'revenue-maxim'
p1351
I14
sS'train'
p1352
I271
sS'fresh'
p1353
I22
sS'extrapol'
p1354
I6
sS'partial'
p1355
I159
sS'scratch'
p1356
I4
sS'broaden'
p1357
I5
sS'watersh'
p1358
I4
sS'salesforc'
p1359
I4
sS'soften'
p1360
I4
sS'semi-parametr'
p1361
I7
sS'liquefied-natural-ga'
p1362
I1
sS'legal'
p1363
I16
sS'broader'
p1364
I15
sS'post-conting'
p1365
I3
sS'quarantin'
p1366
I7
sS'heavy-tail'
p1367
I25
sS'procur'
p1368
I214
sS'iii'
p1369
I24
sS'young'
p1370
I23
sS'send'
p1371
I29
sS'sens'
p1372
I130
sS'sent'
p1373
I9
sS'mean-vari'
p1374
I24
sS'disast'
p1375
I197
sS'finite-vari'
p1376
I2
sS'syntax'
p1377
I5
sS'recip'
p1378
I5
sS'magic'
p1379
I1
sS'counterproduct'
p1380
I3
sS'harbor'
p1381
I3
sS'average-cost'
p1382
I3
sS'inclin'
p1383
I2
sS'fewer'
p1384
I29
sS'timeli'
p1385
I5
sS'race'
p1386
I8
sS'marri'
p1387
I3
sS'rack'
p1388
I4
sS'vehicl'
p1389
I527
sS'impli'
p1390
I85
sS'natur'
p1391
I405
sS'biomass'
p1392
I57
sS'log-concav'
p1393
I3
sS'video'
p1394
I38
sS'odd'
p1395
I10
sS'ode'
p1396
I1
sS'index'
p1397
I105
sS'life-test'
p1398
I1
sS'evacu'
p1399
I161
sS'multimedia'
p1400
I2
sS'mammographi'
p1401
I10
sS'turnaround'
p1402
I4
sS'1400'
p1403
I3
sS'hereditari'
p1404
I2
sS'led'
p1405
I48
sS'leg'
p1406
I19
sS'len'
p1407
I5
sS'coevolutionari'
p1408
I3
sS'northeast'
p1409
I2
sS'let'
p1410
I19
sS'price-driven'
p1411
I1
sS'fifteen'
p1412
I2
sS'hi-tech'
p1413
I2
sS'residenti'
p1414
I18
sS'great'
p1415
I98
sS'bibliometr'
p1416
I4
sS'technolog'
p1417
I810
sS'time-delay'
p1418
I2
sS'survey'
p1419
I143
sS'defeat'
p1420
I7
sS'opinion'
p1421
I46
sS'dyad'
p1422
I2
sS'maker'
p1423
I219
sS'calibr'
p1424
I100
sS'emot'
p1425
I20
sS'disciplin'
p1426
I60
sS'incumb'
p1427
I56
sS'surgery-recoveri'
p1428
I2
sS'causal'
p1429
I36
sS'zip'
p1430
I1
sS'doubl'
p1431
I39
sS'multi-particl'
p1432
I1
sS'bush'
p1433
I2
sS'next'
p1434
I96
sS'pelvic'
p1435
I4
sS'cliqu'
p1436
I46
sS'commut'
p1437
I13
sS'sharpli'
p1438
I2
sS'babi'
p1439
I1
sS'chariti'
p1440
I8
sS'stoppag'
p1441
I1
sS'gambl'
p1442
I13
sS'reproduct'
p1443
I6
sS'procrastin'
p1444
I2
sS'cumbersom'
p1445
I2
sS'thin'
p1446
I10
sS'drill'
p1447
I5
sS'over-ord'
p1448
I2
sS'scatter'
p1449
I4
sS'weaker'
p1450
I8
sS'process'
p1451
I2187
sS'lock'
p1452
I3
sS'high'
p1453
I687
sS'reformulation-linear'
p1454
I2
sS'schemat'
p1455
I3
sS'crimin'
p1456
I9
sS'post-implement'
p1457
I1
sS'weaken'
p1458
I6
sS'customerspurchas'
p1459
I3
sS'tableau'
p1460
I6
sS'wareh'
p1461
I13
sS'infeas'
p1462
I44
sS'wolf'
p1463
I1
sS'clairvoy'
p1464
I1
sS'inhal'
p1465
I2
sS'singular'
p1466
I14
sS'peer-to-p'
p1467
I13
sS'await'
p1468
I2
sS'beamlet'
p1469
I2
sS'tier'
p1470
I30
sS'change-tim'
p1471
I3
sS'decisionmak'
p1472
I4
sS'alloc'
p1473
I1000
sS'onshor'
p1474
I4
sS'essenti'
p1475
I99
sS'waterborn'
p1476
I1
sS'counter'
p1477
I19
sS'robot'
p1478
I20
sS'element'
p1479
I129
sS'issu'
p1480
I569
sS'allot'
p1481
I5
sS'allow'
p1482
I717
sS'p-median'
p1483
I13
sS'movi'
p1484
I23
sS'insight'
p1485
I503
sS'evolutionari'
p1486
I45
sS'perfect'
p1487
I96
sS'delay'
p1488
I512
sS'decay'
p1489
I18
sS'chosen'
p1490
I61
sS'interlink'
p1491
I2
sS'infrastructur'
p1492
I202
sS'2015'
p1493
I4
sS'self-select'
p1494
I3
sS'decad'
p1495
I64
sS'therefor'
p1496
I65
sS'2011'
p1497
I35
sS'2010'
p1498
I28
sS'2013'
p1499
I25
sS'2012'
p1500
I45
sS'overag'
p1501
I10
sS'prosper'
p1502
I2
sS'many-object'
p1503
I3
sS'hurrican'
p1504
I43
sS'overal'
p1505
I200
sS'strateg'
p1506
I503
sS'launder'
p1507
I3
sS'wastag'
p1508
I4
sS'dock'
p1509
I7
sS'out-of-servic'
p1510
I2
sS'facilit'
p1511
I155
sS'max-cut'
p1512
I1
sS'anyth'
p1513
I4
sS'sensemak'
p1514
I1
sS'truth'
p1515
I43
sS'zero-trunc'
p1516
I2
sS'subset'
p1517
I155
sS'societi'
p1518
I38
sS'activit'
p1519
I1
sS'bump'
p1520
I9
sS'lithographi'
p1521
I1
sS'meta'
p1522
I1
sS'static'
p1523
I124
sS'risk-inform'
p1524
I1
sS'statin'
p1525
I11
sS'pareto'
p1526
I1
sS'counterintuit'
p1527
I10
sS'process-ori'
p1528
I3
sS'variabl'
p1529
I868
sS'matrix'
p1530
I143
sS'contigu'
p1531
I20
sS'reload'
p1532
I4
sS'information-theoret'
p1533
I7
sS'lattic'
p1534
I17
sS'pre-technolog'
p1535
I2
sS'matric'
p1536
I46
sS'equity-bas'
p1537
I3
sS'perish'
p1538
I57
sS'regulatori'
p1539
I51
sS'unexpos'
p1540
I3
sS'greedi'
p1541
I57
sS'spill'
p1542
I13
sS'could'
p1543
I258
sS'clandestin'
p1544
I3
sS'ergonom'
p1545
I1
sS'length'
p1546
I169
sS'enforc'
p1547
I44
sS'outsid'
p1548
I35
sS'scarc'
p1549
I25
sS'endors'
p1550
I2
sS'manuscript'
p1551
I8
sS'price-set'
p1552
I11
sS'scene'
p1553
I4
sS'unobserv'
p1554
I42
sS'cyberspac'
p1555
I2
sS'fatigu'
p1556
I12
sS'owner'
p1557
I46
sS'short-'
p1558
I3
sS'three-way'
p1559
I1
sS'out-of-sampl'
p1560
I16
sS'fair-off'
p1561
I2
sS'system'
p1562
I3123
sS'uninsur'
p1563
I2
sS'termin'
p1564
I141
sS'accompani'
p1565
I13
sS'multistag'
p1566
I57
sS'alldiffer'
p1567
I3
sS'steel'
p1568
I13
sS'non-crit'
p1569
I2
sS'mandatori'
p1570
I4
sS'unman'
p1571
I12
sS'psycholog'
p1572
I45
sS'steep'
p1573
I4
sS'conduc'
p1574
I3
sS'steer'
p1575
I8
sS'bottom-lin'
p1576
I2
sS'viewer'
p1577
I7
sS'partnership'
p1578
I47
sS'dosag'
p1579
I8
sS'nonstructur'
p1580
I2
sS'optimis'
p1581
I13
sS're-ord'
p1582
I1
sS'4000'
p1583
I7
sS'disassembl'
p1584
I2
sS'self-organ'
p1585
I10
sS'accuraci'
p1586
I204
sS'adjunct'
p1587
I2
sS'discret'
p1588
I327
sS'securit'
p1589
I5
sS'discrep'
p1590
I12
sS'phenotyp'
p1591
I3
sS'airdrop'
p1592
I5
sS'soar'
p1593
I3
sS'calculus'
p1594
I11
sS'courtesi'
p1595
I2
sS'leader-follow'
p1596
I6
sS'hydro-electr'
p1597
I1
sS'fidel'
p1598
I10
sS'oracl'
p1599
I12
sS'visa'
p1600
I3
sS'inoper'
p1601
I2
sS'medal'
p1602
I4
sS'autoregress'
p1603
I9
sS'placement'
p1604
I61
sS'preschedul'
p1605
I3
sS'arbitrage-fre'
p1606
I1
sS'stronger'
p1607
I24
sS'fare-class'
p1608
I3
sS'enlist'
p1609
I6
sS'univari'
p1610
I15
sS'fact'
p1611
I81
sS'nutrit'
p1612
I4
sS'time-depend'
p1613
I57
sS'indispens'
p1614
I5
sS'2-opt'
p1615
I1
sS'bring'
p1616
I78
sS'rough'
p1617
I13
sS'trivial'
p1618
I8
sS'redirect'
p1619
I3
sS'footbal'
p1620
I18
sS'nois'
p1621
I67
sS'age-depend'
p1622
I3
sS'jam'
p1623
I3
sS'suppos'
p1624
I6
sS'intrigu'
p1625
I2
sS'anneal'
p1626
I16
sS'hope'
p1627
I19
sS'meant'
p1628
I4
sS'move'
p1629
I140
sS'satisfact'
p1630
I84
sS'familiar'
p1631
I21
sS'micro-simul'
p1632
I1
sS'passeng'
p1633
I171
sS'autom'
p1634
I99
sS'piecewis'
p1635
I43
sS'customersdemand'
p1636
I3
sS'space-tim'
p1637
I12
sS'puzzle-bas'
p1638
I1
sS'h'
I1
sS'sequence-depend'
p1639
I6
sS'devast'
p1640
I5
sS'activity-bas'
p1641
I3
sS'withstand'
p1642
I3
sS'power-of-two'
p1643
I3
sS'optimization-simul'
p1644
I2
sS'frame'
p1645
I45
sS'packet'
p1646
I26
sS'temporarili'
p1647
I6
sS'phase-typ'
p1648
I8
sS'particl'
p1649
I27
sS'wire'
p1650
I6
sS'nuclear'
p1651
I40
sS'nationwid'
p1652
I12
sS'misus'
p1653
I3
sS'repric'
p1654
I3
sS'unravel'
p1655
I2
sS'supplier-retail'
p1656
I3
sS'email'
p1657
I27
sS'self-enforc'
p1658
I2
sS'dislik'
p1659
I4
sS'eeffici'
p1660
I3
sS'ramp'
p1661
I18
sS'drug'
p1662
I145
sS'etc'
p1663
I105
sS're-handl'
p1664
I2
sS'cf'
p1665
I2
sS'hazard-bas'
p1666
I2
sS'distil'
p1667
I4
sS'carbon'
p1668
I126
sS'cv'
p1669
I2
sS'scanner'
p1670
I7
sS'quotat'
p1671
I13
sS'obstacl'
p1672
I25
sS'insuffici'
p1673
I20
sS'non-strateg'
p1674
I4
sS'biorefineri'
p1675
I11
sS'immedi'
p1676
I47
sS'break-even'
p1677
I3
sS'ballast'
p1678
I5
sS'commonly-us'
p1679
I2
sS'altruist'
p1680
I6
sS'non-parametr'
p1681
I37
sS're-us'
p1682
I6
sS'deliber'
p1683
I17
sS'planner'
p1684
I66
sS'togeth'
p1685
I119
sS'2014'
p1686
I2
sS'after-sal'
p1687
I9
sS'exogen'
p1688
I43
sS'laser'
p1689
I6
sS'sensor-driven'
p1690
I2
sS'runway'
p1691
I44
sS'decept'
p1692
I13
sS'multi-stori'
p1693
I3
sS'user-specifi'
p1694
I7
sS'purchas'
p1695
I321
sS'site'
p1696
I170
sS'archiv'
p1697
I14
sS'lattice-fre'
p1698
I7
sS'age-specif'
p1699
I5
sS'incom'
p1700
I60
sS'situ'
p1701
I4
sS'cohort'
p1702
I10
sS'terrorist'
p1703
I72
sS'bacteria'
p1704
I6
sS'hedon'
p1705
I7
sS'outbreak'
p1706
I64
sS'single-level'
p1707
I7
sS'competit'
p1708
I736
sS'ball'
p1709
I5
sS'balk'
p1710
I14
sS'expans'
p1711
I151
sS'drink'
p1712
I6
sS'upon'
p1713
I147
sS'coffe'
p1714
I5
sS'continuous-st'
p1715
I4
sS'dust'
p1716
I3
sS'expand'
p1717
I77
sS'audit'
p1718
I38
sS'off'
p1719
I4
sS'colour'
p1720
I2
sS'nation-wid'
p1721
I3
sS'telemat'
p1722
I1
sS'exampl'
p1723
I561
sS'command'
p1724
I18
sS'polym'
p1725
I5
sS'audio'
p1726
I3
sS'depict'
p1727
I7
sS'subgroup'
p1728
I13
sS'newest'
p1729
I6
sS'less'
p1730
I237
sS'e-marketplac'
p1731
I1
sS'computer-bas'
p1732
I4
sS'day-to-day'
p1733
I22
sS'demograph'
p1734
I27
sS'web'
p1735
I107
sS'generous'
p1736
I2
sS'priorit'
p1737
I77
sS'arrest'
p1738
I11
sS'wet'
p1739
I2
sS'multi-retail'
p1740
I5
sS'rectilinear'
p1741
I2
sS'multi-media'
p1742
I2
sS'bi-object'
p1743
I4
sS'government'
p1744
I12
sS'webpag'
p1745
I3
sS'piec'
p1746
I25
sS'arguabl'
p1747
I3
sS'haul'
p1748
I6
sS'all-pay'
p1749
I3
sS'five'
p1750
I52
sS'desk'
p1751
I5
sS'password'
p1752
I5
sS'recurs'
p1753
I33
sS'recurr'
p1754
I28
sS'sparsiti'
p1755
I14
sS'fixed-pric'
p1756
I6
sS'resid'
p1757
I40
sS'undiscount'
p1758
I2
sS'microblog'
p1759
I8
sS'crise'
p1760
I8
sS'stagger'
p1761
I6
sS'exemplari'
p1762
I3
sS'crisi'
p1763
I31
sS'incent'
p1764
I331
sS'habitat'
p1765
I22
sS'captur'
p1766
I346
sS'pair-wis'
p1767
I3
sS'conservat'
p1768
I5
sS'time-step'
p1769
I5
sS'flush'
p1770
I2
sS'guarante'
p1771
I225
sS'ballot'
p1772
I2
sS'huge-scal'
p1773
I2
sS'transport'
p1774
I542
sS'feder'
p1775
I35
sS'avoid'
p1776
I98
sS'breakout'
p1777
I3
sS'passion'
p1778
I3
sS'geo-map'
p1779
I1
sS'pro64257t'
p1780
I3
sS'adversari'
p1781
I57
sS'constraint-bas'
p1782
I5
sS'dissert'
p1783
I11
sS'preferenti'
p1784
I5
sS'stage'
p1785
I323
sS'payout'
p1786
I4
sS'interven'
p1787
I7
sS'machine-learn'
p1788
I5
sS'individual-level'
p1789
I6
sS'linear-quadrat'
p1790
I5
sS'yet-to-be-design'
p1791
I2
sS'two-machin'
p1792
I3
sS'cadet'
p1793
I9
sS'mesoscop'
p1794
I7
sS'mail-in-reb'
p1795
I1
sS'lagrangean'
p1796
I2
sS'lung'
p1797
I16
sS'pitfal'
p1798
I20
sS'mere'
p1799
I10
sS'merg'
p1800
I25
sS'larval'
p1801
I3
sS'function'
p1802
I1430
sS'fiscal'
p1803
I5
sS'stadium'
p1804
I1
sS'n-dimension'
p1805
I3
sS'cost-shar'
p1806
I4
sS'grate'
p1807
I1
sS'count'
p1808
I67
sS'veget'
p1809
I3
sS'municip'
p1810
I16
sS'evidenc'
p1811
I3
sS'otherwis'
p1812
I23
sS'problem'
p1813
I6056
sS'dual-gripp'
p1814
I3
sS'bioterror'
p1815
I13
sS'factor-bas'
p1816
I3
sS'anesthesia'
p1817
I7
sS'wartim'
p1818
I2
sS'nonetheless'
p1819
I1
sS'metagenom'
p1820
I5
sS'varieti'
p1821
I283
sS'repeat'
p1822
I91
sS'ghost'
p1823
I2
sS'searcher'
p1824
I7
sS'outsourc'
p1825
I155
sS'two-play'
p1826
I5
sS'rule'
p1827
I417
sS'pension'
p1828
I3
sS'rail-bas'
p1829
I2
sS'system-wid'
p1830
I22
sS'real-opt'
p1831
I2
sS'entropi'
p1832
I36
sS'off-shor'
p1833
I4
sS'upsid'
p1834
I7
sS'oldest'
p1835
I2
sS'volumetr'
p1836
I1
sS'voter'
p1837
I8
sS'truth-tel'
p1838
I3
sS'multi-cor'
p1839
I7
sS'deviat'
p1840
I102
sS'single-dimension'
p1841
I2
sS'hedg'
p1842
I161
sS'restock'
p1843
I6
sS'worth'
p1844
I11
sS'blanket'
p1845
I2
sS'distort'
p1846
I37
sS'price-demand'
p1847
I3
sS'hisher'
p1848
I12
sS'scale-depend'
p1849
I2
sS'pay-per-click'
p1850
I3
sS'upload'
p1851
I2
sS'roadblock'
p1852
I1
sS'well-defin'
p1853
I4
sS'disc'
p1854
I2
sS'math'
p1855
I21
sS'time-of-us'
p1856
I2
sS'information-gath'
p1857
I4
sS'cmu'
p1858
I1
sS'reinvent'
p1859
I3
sS'apertur'
p1860
I8
sS'speci'
p1861
I26
sS'patronag'
p1862
I3
sS'shut'
p1863
I5
sS'consequ'
p1864
I143
sS'hors'
p1865
I6
sS'two-moment'
p1866
I1
sS'supervis'
p1867
I18
sS'disk'
p1868
I12
sS'+'
I11
sS'near'
p1869
I133
sS'density-bas'
p1870
I3
sS'toll'
p1871
I89
sS'participatori'
p1872
I3
sS'topolog'
p1873
I68
sS'crunch'
p1874
I3
sS'oligopolist'
p1875
I24
sS'r-robust'
p1876
I2
sS'redeploy'
p1877
I5
sS'locomot'
p1878
I34
sS'pursuit'
p1879
I13
sS'nonstationar'
p1880
I3
sS'vehicle-to-vehicl'
p1881
I3
sS'forens'
p1882
I5
sS'catch-up'
p1883
I4
sS'two-product'
p1884
I3
sS'studi'
p1885
I3369
sS'timefram'
p1886
I4
sS'newspap'
p1887
I5
sS'over-'
p1888
I3
sS'releas'
p1889
I88
sS'attitud'
p1890
I44
sS'total'
p1891
I520
sS'plot'
p1892
I12
sS'end-custom'
p1893
I4
sS'shortest'
p1894
I81
sS'cost-bas'
p1895
I3
sS'depeak'
p1896
I4
sS'stockag'
p1897
I2
sS'award'
p1898
I94
sS'tariff'
p1899
I24
sS'1991'
p1900
I7
sS'1990'
p1901
I10
sS'1993'
p1902
I10
sS'1992'
p1903
I9
sS'word'
p1904
I14
sS'1994'
p1905
I10
sS'1997'
p1906
I16
sS'1996'
p1907
I6
sS'1999'
p1908
I4
sS'1998'
p1909
I16
sS'work'
p1910
I1098
sS'wors'
p1911
I22
sS'era'
p1912
I7
sS'novic'
p1913
I4
sS'indic'
p1914
I295
sS'impair'
p1915
I4
sS'semidefinit'
p1916
I64
sS'edge-weight'
p1917
I3
sS'unavail'
p1918
I12
sS'basebal'
p1919
I8
sS'real-tim'
p1920
I194
sS'ordinari'
p1921
I13
sS'song'
p1922
I8
sS'non-us'
p1923
I1
sS'recoveri'
p1924
I112
sS'interview'
p1925
I37
sS'disappoint'
p1926
I5
sS'rebat'
p1927
I38
sS'recogn'
p1928
I71
sS'ladder'
p1929
I4
sS'earlier'
p1930
I55
sS'lab'
p1931
I22
sS'lay'
p1932
I8
sS'rebal'
p1933
I3
sS'law'
p1934
I55
sS'demonstr'
p1935
I773
sS'harmoni'
p1936
I1
sS'domin'
p1937
I128
sS'opaqu'
p1938
I12
sS'population-bas'
p1939
I2
sS'cost-to-go'
p1940
I8
sS'greek'
p1941
I1
sS'nascent'
p1942
I2
sS'green'
p1943
I32
sS'fan'
p1944
I7
sS'single-track'
p1945
I3
sS'order'
p1946
I1100
sS'partition-bas'
p1947
I2
sS'softwar'
p1948
I417
sS'diagnos'
p1949
I31
sS'offici'
p1950
I23
sS'easy-to-us'
p1951
I4
sS'teen'
p1952
I2
sS'veri'
p1953
I3
sS'incid'
p1954
I94
sS'misconduct'
p1955
I7
sS'flexibl'
p1956
I441
sS'top-k'
p1957
I2
sS'offic'
p1958
I45
sS'end-point'
p1959
I3
sS'versus'
p1960
I83
sS'corrobor'
p1961
I1
sS'fragment'
p1962
I17
sS'safe'
p1963
I27
sS'break'
p1964
I50
sS'band'
p1965
I4
sS'crossdock'
p1966
I10
sS'payback'
p1967
I1
sS'lifelong'
p1968
I4
sS'bank'
p1969
I110
sS'tendenc'
p1970
I11
sS'public-priv'
p1971
I7
sS'oxygen'
p1972
I4
sS'lead-tim'
p1973
I26
sS'smartphon'
p1974
I13
sS'subassembl'
p1975
I5
sS'log-robust'
p1976
I1
sS'end-to-end'
p1977
I11
sS'voxel'
p1978
I6
sS'monolith'
p1979
I3
sS'revenue-shar'
p1980
I4
sS'first-pric'
p1981
I12
sS'high-dens'
p1982
I3
sS'better-inform'
p1983
I4
sS'network'
p1984
I2545
sS'upper-'
p1985
I3
sS'long-haul'
p1986
I6
sS'morpholog'
p1987
I6
sS'forth'
p1988
I4
sS'barrier'
p1989
I56
sS'standard'
p1990
I358
sS'nth'
p1991
I2
sS'ready-mad'
p1992
I3
sS'fring'
p1993
I3
sS'reneg'
p1994
I10
sS'angl'
p1995
I26
sS'renew'
p1996
I139
sS'regress'
p1997
I200
sS'pre-commit'
p1998
I3
sS'subtl'
p1999
I9
sS'licens'
p2000
I49
sS'network-level'
p2001
I3
sS'render'
p2002
I19
sS'independ'
p2003
I256
sS'unsuit'
p2004
I2
sS'thick'
p2005
I15
sS'm-commerc'
p2006
I2
sS'cartesian'
p2007
I1
sS'optim'
p2008
I5197
sS'nomin'
p2009
I28
sS'public-sector'
p2010
I2
sS'equilibria'
p2011
I133
sS'wastewat'
p2012
I6
sS'scaling-up'
p2013
I4
sS'network-bas'
p2014
I19
sS'5-10'
p2015
I3
sS'fine-tun'
p2016
I5
sS'inexact'
p2017
I11
sS'incentive-bas'
p2018
I1
sS'target'
p2019
I329
sS'provid'
p2020
I2383
sS'location-alloc'
p2021
I12
sS'rate'
p2022
I798
sS'iron'
p2023
I2
sS'high-cost'
p2024
I3
sS'minut'
p2025
I37
sS'minus'
p2026
I4
sS'provis'
p2027
I65
sS'contenti'
p2028
I3
sS'salvag'
p2029
I9
sS'manner'
p2030
I76
sS'problem-solv'
p2031
I2
sS'subsid'
p2032
I11
sS'gear'
p2033
I5
sS'strength'
p2034
I73
sS'realm'
p2035
I2
sS'luxuri'
p2036
I3
sS'latter'
p2037
I48
sS'process-bas'
p2038
I4
sS'casual'
p2039
I3
sS'frictionless'
p2040
I3
sS'transmit'
p2041
I14
sS'curfew'
p2042
I1
sS'high-spe'
p2043
I18
sS'anatomi'
p2044
I4
sS'nonlinear'
p2045
I291
sS'phase'
p2046
I143
sS'telemedicin'
p2047
I6
sS'co-clust'
p2048
I2
sS'paradigm'
p2049
I70
sS'nano'
p2050
I5
sS'bracket'
p2051
I8
sS'notion'
p2052
I76
sS'opposit'
p2053
I21
sS'freeform'
p2054
I1
sS'roundtabl'
p2055
I1
sS'intensif'
p2056
I4
sS'protocol'
p2057
I64
sS'patient-cent'
p2058
I5
sS'national-scal'
p2059
I1
sS'involv'
p2060
I544
sS'consolid'
p2061
I44
sS'latent'
p2062
I29
sS'ellipsoid'
p2063
I9
sS'latenc'
p2064
I4
sS'nanocryst'
p2065
I3
sS'predecessor'
p2066
I3
sS'stage-g'
p2067
I4
sS'de'
p2068
I8
sS'dc'
p2069
I1
sS'roundabout'
p2070
I2
sS'onboard'
p2071
I3
sS'du'
p2072
I1
sS'youtub'
p2073
I2
sS'slack'
p2074
I14
sS'hall'
p2075
I1
sS'diabet'
p2076
I21
sS'emb'
p2077
I16
sS'unmet'
p2078
I12
sS'secretari'
p2079
I3
sS'gaug'
p2080
I11
sS'steal'
p2081
I2
sS'resource-alloc'
p2082
I4
sS'quality-bas'
p2083
I2
sS'uncoordin'
p2084
I5
sS'k-median'
p2085
I4
sS'imput'
p2086
I11
sS'optimum'
p2087
I67
sS'risk-benefit'
p2088
I2
sS'awar'
p2089
I39
sS'away'
p2090
I46
sS'sealed-bid'
p2091
I14
sS'languag'
p2092
I104
sS'drawn'
p2093
I30
sS'92'
p2094
I2
sS'accord'
p2095
I163
sS'mixed-binari'
p2096
I1
sS'same-day'
p2097
I10
sS'unfold'
p2098
I7
sS'stricter'
p2099
I4
sS'ill'
p2100
I16
sS'scrutin'
p2101
I2
sS'under-estim'
p2102
I3
sS'anticipatori'
p2103
I4
sS'year-end'
p2104
I1
sS'tough'
p2105
I6
sS'applianc'
p2106
I7
sS'trunk'
p2107
I2
sS'codon'
p2108
I3
sS'alternative-fuel'
p2109
I1
sS'tonn'
p2110
I3
sS'permut'
p2111
I1
sS'wider'
p2112
I9
sS'guid'
p2113
I91
sS'bottoms-up'
p2114
I3
sS'speak'
p2115
I7
sS'degener'
p2116
I6
sS'code-shar'
p2117
I4
sS'convolut'
p2118
I2
sS'acuiti'
p2119
I7
sS'plantat'
p2120
I1
sS'revenu'
p2121
I590
sS'subscrib'
p2122
I11
sS'lockup'
p2123
I3
sS'multi-compon'
p2124
I8
sS'efficiency-bas'
p2125
I4
sS'prison'
p2126
I3
sS'multi-speci'
p2127
I3
sS'taxat'
p2128
I3
sS'sabotag'
p2129
I3
sS'naval'
p2130
I5
sS'physician'
p2131
I102
sS'inhibit'
p2132
I6
sS'ident'
p2133
I95
sS'properti'
p2134
I492
sS'air'
p2135
I143
sS'aim'
p2136
I263
sS'pairwis'
p2137
I31
sS'aid'
p2138
I94
sS'vagu'
p2139
I5
sS'opt'
p2140
I3
sS'memoryless'
p2141
I1
sS'cone'
p2142
I70
sS'uplift'
p2143
I6
sS'descent'
p2144
I17
sS'perform'
p2145
I2083
sS'preserv'
p2146
I45
sS'target-ori'
p2147
I4
sS'descend'
p2148
I4
sS'wheel'
p2149
I4
sS'uninterrupt'
p2150
I5
sS'redistrict'
p2151
I2
sS'raid'
p2152
I3
sS'fragil'
p2153
I6
sS'evid'
p2154
I157
sS'rail'
p2155
I84
sS'on-sit'
p2156
I6
sS'hand'
p2157
I81
sS'time-shar'
p2158
I3
sS'fuse'
p2159
I12
sS'counterparti'
p2160
I10
sS'co-product'
p2161
I4
sS'multi-lay'
p2162
I2
sS'catheter'
p2163
I2
sS'aggregation-disaggreg'
p2164
I2
sS'kept'
p2165
I4
sS'undesir'
p2166
I15
sS'scenario'
p2167
I501
sS'1978'
p2168
I3
sS'1977'
p2169
I4
sS'1976'
p2170
I3
sS'hypothes'
p2171
I62
sS'1972'
p2172
I3
sS'contact'
p2173
I54
sS'wherebi'
p2174
I14
sS'bacteri'
p2175
I3
sS'non-stationari'
p2176
I29
sS'stringent'
p2177
I7
sS'photo'
p2178
I6
sS'farther'
p2179
I2
sS'victim'
p2180
I16
sS'interval-flow'
p2181
I1
sS'3-dimension'
p2182
I7
sS'spread'
p2183
I123
sS'board'
p2184
I35
sS'contemporan'
p2185
I3
sS'face-to-fac'
p2186
I6
sS'mechanist'
p2187
I3
sS'fusion'
p2188
I38
sS'leagu'
p2189
I16
sS'hysteret'
p2190
I1
sS'night'
p2191
I8
sS'ill-structur'
p2192
I4
sS'one-step'
p2193
I4
sS'oxid'
p2194
I1
sS'manual'
p2195
I18
sS'percentag'
p2196
I36
sS'born'
p2197
I2
sS'common-caus'
p2198
I3
sS'humor'
p2199
I3
sS'multi-object'
p2200
I81
sS'pavement'
p2201
I25
sS'overcom'
p2202
I63
sS'k-level'
p2203
I1
sS'pose'
p2204
I66
sS'confer'
p2205
I22
sS'repositori'
p2206
I15
sS'peer'
p2207
I34
sS'post'
p2208
I84
sS'biclust'
p2209
I6
sS'chronolog'
p2210
I3
sS'literatur'
p2211
I409
sS'storageretriev'
p2212
I2
sS'banker'
p2213
I3
sS'horizon'
p2214
I250
sS'dilemma'
p2215
I12
sS'thermostat'
p2216
I1
sS'float'
p2217
I6
sS'profession'
p2218
I77
sS'bound'
p2219
I648
sS'opportun'
p2220
I288
sS'amidst'
p2221
I3
sS'fill-rat'
p2222
I2
sS'multi-stag'
p2223
I57
sS'nodal'
p2224
I9
sS'fight'
p2225
I9
sS'way'
p2226
I417
sS'war'
p2227
I15
sS'lowest'
p2228
I28
sS'multiple-choic'
p2229
I3
sS'dead'
p2230
I5
sS'true'
p2231
I84
sS'reset'
p2232
I1
sS'absent'
p2233
I14
sS'retim'
p2234
I3
sS'input'
p2235
I255
sS'slope'
p2236
I2
sS'inquir'
p2237
I2
sS'geospati'
p2238
I6
sS'maximum'
p2239
I241
sS'crystal'
p2240
I3
sS'inaccur'
p2241
I15
sS'absenc'
p2242
I38
sS'resel'
p2243
I7
sS'retir'
p2244
I16
sS'sample-path'
p2245
I5
sS'alongsid'
p2246
I5
sS'enterprise-wid'
p2247
I6
sS'abstract'
p2248
I42
sS'reexamin'
p2249
I3
sS'face'
p2250
I463
sS'mold'
p2251
I2
sS'interf'
p2252
I1
sS'encrypt'
p2253
I2
sS'stake'
p2254
I9
sS'refactor'
p2255
I3
sS'circulatori'
p2256
I4
sS'test'
p2257
I843
sS'interc'
p2258
I4
sS'shrink'
p2259
I7
sS'realiti'
p2260
I28
sS'ramp-up'
p2261
I4
sS'cybersecur'
p2262
I4
sS'outreach'
p2263
I8
sS'omega'
p2264
I1
sS'outdat'
p2265
I5
sS'turbul'
p2266
I12
sS'loyal'
p2267
I4
sS'resource-constrain'
p2268
I7
sS'concept'
p2269
I303
sS'write-off'
p2270
I1
sS'consum'
p2271
I758
sS'inelig'
p2272
I5
sS'drop-off'
p2273
I6
sS'dialysi'
p2274
I7
sS'supplement'
p2275
I6
sS'parallel-serv'
p2276
I6
sS'middl'
p2277
I12
sS'zone'
p2278
I52
sS'class-bas'
p2279
I1
sS'graph'
p2280
I304
sS'hump'
p2281
I7
sS'terror'
p2282
I36
sS'low-incom'
p2283
I5
sS'congest'
p2284
I236
sS'non-monoton'
p2285
I12
sS'10-year'
p2286
I4
sS'brows'
p2287
I12
sS'administr'
p2288
I43
sS'chance-constraint'
p2289
I2
sS'reconcil'
p2290
I6
sS'p'
I24
sS'branchbound'
p2291
I2
sS'q'
I3
sS'gut'
p2292
I2
sS'bed-block'
p2293
I2
sS'upper'
p2294
I138
sS'hydrotherm'
p2295
I7
sS'revolution'
p2296
I6
sS'regret'
p2297
I33
sS'scarciti'
p2298
I14
sS'firehous'
p2299
I3
sS'biomanufactur'
p2300
I4
sS'thinker'
p2301
I1
sS'cost'
p2302
I2569
sS'mid-level'
p2303
I1
sS'precipit'
p2304
I4
sS'asset-bas'
p2305
I3
sS'cargo'
p2306
I66
sS'appear'
p2307
I62
sS'direction-depend'
p2308
I2
sS'economist'
p2309
I7
sS'scaffold'
p2310
I5
sS'uniform'
p2311
I73
sS'indiffer'
p2312
I13
sS'appeal'
p2313
I31
sS'defici'
p2314
I15
sS'genet'
p2315
I97
sS'seizur'
p2316
I7
sS'satisfi'
p2317
I189
sS'three-point'
p2318
I3
sS'teacher'
p2319
I4
sS'buck'
p2320
I1
sS'precursor'
p2321
I6
sS'trial'
p2322
I64
sS'behav'
p2323
I30
sS'poisson'
p2324
I1
sS'triad'
p2325
I3
sS'triag'
p2326
I35
sS'optoelectron'
p2327
I3
sS'extra'
p2328
I30
sS'k-chain'
p2329
I1
sS'marker'
p2330
I10
sS'upgaug'
p2331
I2
sS'world-wid'
p2332
I2
sS'mobil'
p2333
I118
sS'market'
p2334
I1893
sS'quasi-cliqu'
p2335
I4
sS'anesthet'
p2336
I2
sS'prove'
p2337
I246
sS'subaddit'
p2338
I13
sS'live'
p2339
I59
sS'vehiclescapac'
p2340
I2
sS'regen'
p2341
I4
sS'said'
p2342
I10
sS'unserv'
p2343
I2
sS'club'
p2344
I4
sS'time-to-failur'
p2345
I1
sS'distribution-fre'
p2346
I14
sS'finit'
p2347
I243
sS'per-us'
p2348
I2
sS'unconsci'
p2349
I3
sS'op'
p2350
I2
sS'logarithm'
p2351
I14
sS'prepay'
p2352
I3
sS'graphic'
p2353
I36
sS'car'
p2354
I65
sS'prepar'
p2355
I52
sS'cap'
p2356
I21
sS'methodolgi'
p2357
I1
sS'cat'
p2358
I1
sS'hardest'
p2359
I2
sS'branch-and-cut-and-pric'
p2360
I4
sS'path-depend'
p2361
I7
sS'heart'
p2362
I23
sS'underestim'
p2363
I7
sS'practition'
p2364
I59
sS'chip'
p2365
I10
sS'topic'
p2366
I119
sS'spi'
p2367
I8
sS'o'
I1
sS'simul'
p2368
I1172
sS'occur'
p2369
I171
sS'occup'
p2370
I43
sS'multipl'
p2371
I961
sS'bankrupt'
p2372
I2
sS'uptim'
p2373
I3
sS'economi'
p2374
I140
sS'write'
p2375
I22
sS'criterion'
p2376
I58
sS'multi-resourc'
p2377
I2
sS'lifesav'
p2378
I3
sS'hypertens'
p2379
I1
sS'product'
p2380
I2906
sS'dive'
p2381
I3
sS'southern'
p2382
I2
sS'bear'
p2383
I7
sS'drastic'
p2384
I12
sS'health-rel'
p2385
I5
sS're-alloc'
p2386
I3
sS'near-optim'
p2387
I56
sS'misrepres'
p2388
I3
sS'explicit'
p2389
I183
sS'offens'
p2390
I6
sS'offend'
p2391
I11
sS'irrat'
p2392
I6
sS'in-class'
p2393
I4
sS'approv'
p2394
I11
sS'brain'
p2395
I25
sS'endem'
p2396
I2
sS'no-arbitrag'
p2397
I4
sS'cold'
p2398
I7
sS'still'
p2399
I86
sS'dynam'
p2400
I1609
sS'stowag'
p2401
I3
sS'ethic'
p2402
I13
sS'conjunct'
p2403
I36
sS'precondit'
p2404
I7
sS'window'
p2405
I72
sS'earliest-deadline-first'
p2406
I1
sS'non'
p2407
I20
sS'recal'
p2408
I22
sS'overcrowd'
p2409
I12
sS'1957'
p2410
I4
sS'1956'
p2411
I5
sS'aesthet'
p2412
I4
sS'half'
p2413
I21
sS'discuss'
p2414
I1847
sS'introduct'
p2415
I100
sS'critiqu'
p2416
I3
sS'assemble-to-ord'
p2417
I12
sS'drop'
p2418
I24
sS'magazin'
p2419
I8
sS'condition-bas'
p2420
I6
sS'derivative-fre'
p2421
I11
sS'em'
p2422
I2
sS'mould'
p2423
I2
sS'domain'
p2424
I134
sS'en'
p2425
I16
sS'citat'
p2426
I6
sS'collud'
p2427
I3
sS'ed'
p2428
I2
sS'eg'
p2429
I269
sS'nonrecurr'
p2430
I2
sS'collus'
p2431
I14
sS'ex'
p2432
I30
sS'year'
p2433
I427
sS'multi-unit'
p2434
I9
sS'wavelength'
p2435
I5
sS'happen'
p2436
I44
sS'ep'
p2437
I1
sS'er'
p2438
I1
sS'hand-held'
p2439
I1
sS'shown'
p2440
I230
sS'accomplish'
p2441
I40
sS'absorpt'
p2442
I1
sS'space'
p2443
I327
sS'firm-level'
p2444
I15
sS'strategyproof'
p2445
I6
sS'rational'
p2446
I9
sS'showroom'
p2447
I2
sS'aeromed'
p2448
I5
sS'argu'
p2449
I80
sS'cart'
p2450
I2
sS'order-up-to'
p2451
I15
sS'card'
p2452
I19
sS'care'
p2453
I383
sS'nanomateri'
p2454
I6
sS'honest'
p2455
I6
sS'bioinformat'
p2456
I7
sS'nonprofit'
p2457
I14
sS'profess'
p2458
I6
sS'blind'
p2459
I12
sS'low-end'
p2460
I6
sS'fi'
p2461
I6
sS'ring'
p2462
I2
sS'size'
p2463
I486
sS'sheet'
p2464
I14
sS'silent'
p2465
I3
sS'traction'
p2466
I4
sS'statewid'
p2467
I1
sS'cumul'
p2468
I48
sS'friend'
p2469
I27
sS'k-dimension'
p2470
I4
sS'quay'
p2471
I11
sS'courier'
p2472
I1
sS'especi'
p2473
I106
sS'least-cost'
p2474
I5
sS'multi-us'
p2475
I4
sS'less-inform'
p2476
I5
sS'non-iid'
p2477
I2
sS'location-rout'
p2478
I3
sS'discrete-ev'
p2479
I21
sS'interbank'
p2480
I10
sS'disser'
p2481
I1
sS'recruit'
p2482
I33
sS'changepoint'
p2483
I2
sS'applet'
p2484
I6
sS'uniform-pric'
p2485
I3
sS'optimist'
p2486
I19
sS'c-section'
p2487
I3
sS'delic'
p2488
I2
sS'delib'
p2489
I1
sS'premier'
p2490
I3
sS'anywher'
p2491
I7
sS'delin'
p2492
I7
sS'deliv'
p2493
I145
sS'recover'
p2494
I3
sS'slab'
p2495
I8
sS'engin'
p2496
I241
sS'click-through'
p2497
I4
sS'veteran'
p2498
I2
sS'non-conform'
p2499
I3
sS'lumpi'
p2500
I6
sS'espous'
p2501
I2
sS'begin'
p2502
I70
sS'price'
p2503
I2804
sS'rerout'
p2504
I38
sS'call-cent'
p2505
I6
sS'synthesi'
p2506
I22
sS'non-redund'
p2507
I5
sS'renal'
p2508
I1
sS'rescu'
p2509
I12
sS'meanwhil'
p2510
I2
sS'multiprocessor'
p2511
I3
sS'crossov'
p2512
I2
sS'deleteri'
p2513
I2
sS'end-us'
p2514
I13
sS'so-cal'
p2515
I43
sS'geographi'
p2516
I15
sS'concurr'
p2517
I28
sS'capston'
p2518
I7
sS'225'
p2519
I2
sS'ground'
p2520
I66
sS'snack'
p2521
I1
sS'ratio'
p2522
I132
sS'contingency-constrain'
p2523
I1
sS'manmad'
p2524
I3
sS'frequentist'
p2525
I4
sS'cannot'
p2526
I106
sS'orthoped'
p2527
I4
sS'truli'
p2528
I7
sS'dual-tol'
p2529
I1
sS'ad-hoc'
p2530
I16
sS'seldom'
p2531
I9
sS'chance-constrain'
p2532
I25
sS'intermitt'
p2533
I23
sS'bullwhip'
p2534
I20
sS'telecommun'
p2535
I43
sS'myopia'
p2536
I1
sS'concert'
p2537
I6
sS'burst'
p2538
I8
sS'add-in'
p2539
I6
sS'sport'
p2540
I30
sS'concern'
p2541
I212
sS'backord'
p2542
I22
sS'3'
I128
sS'non-collabor'
p2543
I1
sS'import'
p2544
I794
sS'eros'
p2545
I6
sS'class-depend'
p2546
I2
sS'semi-nonparametr'
p2547
I3
sS'deliver'
p2548
I9
sS'buyer-suppli'
p2549
I7
sS'amplif'
p2550
I6
sS'inflex'
p2551
I4
sS'blame'
p2552
I2
sS'measl'
p2553
I2
sS'pertain'
p2554
I10
sS'rippl'
p2555
I2
sS'nearbi'
p2556
I5
sS'tutori'
p2557
I51
sS'high-dimension'
p2558
I37
sS'buy-back'
p2559
I10
sS'interdomain'
p2560
I3
sS'overview'
p2561
I142
sS'dispatch'
p2562
I138
sS'exploit'
p2563
I186
sS'damag'
p2564
I76
sS'brand-nam'
p2565
I1
sS'invert'
p2566
I7
sS'invers'
p2567
I64
sS'avian'
p2568
I1
sS'non-renew'
p2569
I5
sS'emphas'
p2570
I39
sS'interregion'
p2571
I3
sS'textbook'
p2572
I21
sS'aviat'
p2573
I43
sS'countless'
p2574
I4
sS'thesi'
p2575
I9
sS'longitudin'
p2576
I39
sS'video-gam'
p2577
I2
sS'log-return'
p2578
I2
sS'these'
p2579
I3
sS'trick'
p2580
I2
sS'multi-play'
p2581
I4
sS'erad'
p2582
I6
sS'sugarcan'
p2583
I1
sS'soil'
p2584
I3
sS'metric'
p2585
I219
sS'henc'
p2586
I43
sS'chromat'
p2587
I4
sS'worri'
p2588
I3
sS'flow-cov'
p2589
I2
sS'bias'
p2590
I137
sS'oligopoli'
p2591
I26
sS'waterway'
p2592
I10
sS'in-hospit'
p2593
I3
sS'develop'
p2594
I3034
sS'media'
p2595
I112
sS'medic'
p2596
I275
sS'microarray'
p2597
I14
sS'epoch'
p2598
I8
sS'document'
p2599
I54
sS'finish'
p2600
I28
sS'closest'
p2601
I10
sS'multiattribut'
p2602
I25
sS'location-bas'
p2603
I8
sS'fruit'
p2604
I8
sS'pervas'
p2605
I11
sS'theater'
p2606
I11
sS'jump-diffus'
p2607
I13
sS'charger'
p2608
I4
sS'deferr'
p2609
I4
sS'taxi'
p2610
I25
sS'core-select'
p2611
I12
sS'livestock'
p2612
I2
sS'staircas'
p2613
I2
sS'touch'
p2614
I8
sS'exacerb'
p2615
I13
sS'speed'
p2616
I129
sS'death'
p2617
I32
sS'mark-to-market'
p2618
I3
sS'java-bas'
p2619
I1
sS'refurbish'
p2620
I16
sS'desktop'
p2621
I5
sS'identif'
p2622
I69
sS'treatment'
p2623
I413
sS'aerospac'
p2624
I7
sS'manufacturer-retail'
p2625
I5
sS'momentum'
p2626
I8
sS'real'
p2627
I460
sS'hypothesi'
p2628
I36
sS'read'
p2629
I21
sS'specimen'
p2630
I2
sS'2011-12'
p2631
I3
sS'envis'
p2632
I4
sS'reap'
p2633
I3
sS'information-shar'
p2634
I3
sS'benefit'
p2635
I609
sS'cascad'
p2636
I30
sS'manpow'
p2637
I15
sS'output'
p2638
I183
sS'downward'
p2639
I5
sS'malevol'
p2640
I2
sS'verbal'
p2641
I3
sS'co-2-plex'
p2642
I4
sS'anomal'
p2643
I11
sS'two-mod'
p2644
I2
sS'hemodynam'
p2645
I2
sS'radiat'
p2646
I62
sS'nonzero'
p2647
I7
sS'viral'
p2648
I11
sS'characteris'
p2649
I6
sS'abound'
p2650
I2
sS'dealership'
p2651
I4
sS'knowledge-intens'
p2652
I4
sS'deficit'
p2653
I5
sS'non-profit'
p2654
I14
sS'nanotechnolog'
p2655
I12
sS'compris'
p2656
I47
sS'multist'
p2657
I2
sS'sixti'
p2658
I4
sS'nmi'
p2659
I1
sS'comparison'
p2660
I162
sS'contagi'
p2661
I6
sS'central'
p2662
I252
sS'antibodi'
p2663
I1
sS'degre'
p2664
I164
sS'agglomer'
p2665
I5
sS'underway'
p2666
I4
sS'shipper-carri'
p2667
I1
sS'underwat'
p2668
I2
sS'baseload'
p2669
I5
sS'backup'
p2670
I27
sS'processor'
p2671
I39
sS'pre-op'
p2672
I2
sS'outlook'
p2673
I5
sS're-entr'
p2674
I3
sS'elementari'
p2675
I12
sS'resampl'
p2676
I1
sS'multihop'
p2677
I2
sS'nurs'
p2678
I93
sS'airlin'
p2679
I322
sS'log'
p2680
I33
sS'area'
p2681
I447
sS'premia'
p2682
I2
sS'start'
p2683
I181
sS'starv'
p2684
I2
sS'low'
p2685
I203
sS'lot'
p2686
I40
sS'submiss'
p2687
I11
sS'premis'
p2688
I10
sS'derail'
p2689
I6
sS'pitcher'
p2690
I3
sS'oscil'
p2691
I10
sS'posterior'
p2692
I41
sS'satur'
p2693
I5
sS'trajectori'
p2694
I68
sS'hire'
p2695
I28
sS'fraud'
p2696
I29
sS'embedded'
p2697
I1
sS'default'
p2698
I106
sS'bucket'
p2699
I16
sS'overpay'
p2700
I1
sS'stochast'
p2701
I1433
sS'600'
p2702
I4
sS'1200'
p2703
I2
sS'operational-level'
p2704
I3
sS'decreas'
p2705
I170
sS'state-depend'
p2706
I35
sS'cost-effect'
p2707
I86
sS'antenna'
p2708
I5
sS'marketplac'
p2709
I46
sS'unauthor'
p2710
I2
sS'valid'
p2711
I327
sS'multidrug-resist'
p2712
I2
sS'client-serv'
p2713
I2
sS'poor'
p2714
I79
sS'polar'
p2715
I7
sS'registri'
p2716
I2
sS'stand-alon'
p2717
I6
sS'drift'
p2718
I28
sS'multidimension'
p2719
I19
sS'polynomi'
p2720
I172
sS'peak'
p2721
I41
sS'nonmonoton'
p2722
I3
sS'pool'
p2723
I165
sS'reduc'
p2724
I760
sS'assert'
p2725
I7
sS'3-5'
p2726
I3
sS'open-loop'
p2727
I5
sS'inevit'
p2728
I8
sS'repay'
p2729
I6
sS'licensor'
p2730
I1
sS'precondition'
p2731
I4
sS'non-stochast'
p2732
I2
sS'groundwork'
p2733
I2
sS'geographically-dispers'
p2734
I4
sS'month'
p2735
I52
sS'unrest'
p2736
I3
sS'correl'
p2737
I231
sS'carpet'
p2738
I4
sS'articl'
p2739
I54
sS'foster'
p2740
I11
sS'ex-situ'
p2741
I2
sS'apport'
p2742
I3
sS'all-or-noth'
p2743
I2
sS'mechan'
p2744
I612
sS'hold-up'
p2745
I4
sS'underperform'
p2746
I5
sS'retrial'
p2747
I6
sS'multi-stream'
p2748
I3
sS'maximis'
p2749
I5
sS'--'
p2750
I40
sS'emul'
p2751
I5
sS'resal'
p2752
I15
sS'undomin'
p2753
I3
sS'maximin'
p2754
I6
sS'blackout'
p2755
I5
sS'dimens'
p2756
I138
sS'skin'
p2757
I3
sS'narrat'
p2758
I6
sS'redial'
p2759
I2
sS'hamper'
p2760
I5
sS'bilinear'
p2761
I25
sS'one-warehous'
p2762
I5
sS'maritim'
p2763
I16
sS'on-go'
p2764
I16
sS'learner'
p2765
I3
sS'consecut'
p2766
I15
sS'essenc'
p2767
I4
sS'cannib'
p2768
I16
sS'modular'
p2769
I57
sS'co-epidem'
p2770
I3
sS'excess'
p2771
I65
sS'nanorod'
p2772
I4
sS'strong'
p2773
I198
sS'modifi'
p2774
I103
sS'arena'
p2775
I6
sS'self-report'
p2776
I2
sS'ahead'
p2777
I16
sS'hospital-level'
p2778
I3
sS'soldier'
p2779
I8
sS'amount'
p2780
I244
sS'arent'
p2781
I1
sS'medicin'
p2782
I28
sS'word-of-mouth'
p2783
I9
sS'ask'
p2784
I68
sS'famili'
p2785
I122
sS'add-on'
p2786
I4
sS'perceptron'
p2787
I5
sS'aggress'
p2788
I27
sS'earliest'
p2789
I5
sS'taker'
p2790
I3
sS'injuri'
p2791
I9
sS'almost'
p2792
I51
sS'formul'
p2793
I1159
sS'taken'
p2794
I73
sS'nosocomi'
p2795
I2
sS'oblivi'
p2796
I4
sS'post-earthquak'
p2797
I1
sS'take-off'
p2798
I4
sS'histori'
p2799
I57
sS'vs'
p2800
I71
sS'nine'
p2801
I6
sS'post-op'
p2802
I4
sS'geocach'
p2803
I2
sS'oilfield'
p2804
I1
sS'radiotherapi'
p2805
I20
sS'transcend'
p2806
I2
sS'templat'
p2807
I28
sS'temperature-bas'
p2808
I1
sS'coarse-grain'
p2809
I5
sS'mirror-prox'
p2810
I1
sS'unreli'
p2811
I32
sS'defend-attack-defend'
p2812
I1
sS'phrase'
p2813
I4
sS'anoth'
p2814
I113
sS'spreadsheet'
p2815
I124
sS'foreseen'
p2816
I2
sS'menus'
p2817
I3
sS'customer-driven'
p2818
I1
sS'reject'
p2819
I18
sS'multicommun'
p2820
I4
sS'threat'
p2821
I104
sS'gase'
p2822
I2
sS'n+1'
p2823
I3
sS'undecid'
p2824
I4
sS'embrac'
p2825
I10
sS'undergradu'
p2826
I51
sS'stabil'
p2827
I108
sS'lifetim'
p2828
I71
sS'spectra'
p2829
I12
sS'three-level'
p2830
I6
sS'rebalanc'
p2831
I10
sS'two-block'
p2832
I2
sS'help'
p2833
I403
sS'reservoir'
p2834
I16
sS'fft'
p2835
I2
sS'soon'
p2836
I16
sS'held'
p2837
I23
sS'thermal'
p2838
I28
sS're-engin'
p2839
I5
sS'minmax'
p2840
I1
sS'taxonomi'
p2841
I14
sS'cardiovascular'
p2842
I8
sS'non-anticip'
p2843
I2
sS'logistician'
p2844
I2
sS'auto-correl'
p2845
I3
sS'oncologist'
p2846
I3
sS'single-class'
p2847
I3
sS'finer'
p2848
I3
sS'food'
p2849
I84
sS'sentenc'
p2850
I3
sS'subtask'
p2851
I4
sS'site-specif'
p2852
I4
sS'foot'
p2853
I3
sS'non-peak'
p2854
I5
sS'payer'
p2855
I9
sS'space-fil'
p2856
I5
sS'predatori'
p2857
I3
sS'radial'
p2858
I3
sS'fulli'
p2859
I99
sS'intervent'
p2860
I107
sS'team-bas'
p2861
I4
sS'trailer'
p2862
I23
sS'non-financi'
p2863
I2
sS'always-on'
p2864
I2
sS'anarchi'
p2865
I15
sS'heavi'
p2866
I59
sS'dichotomi'
p2867
I2
sS'quantum'
p2868
I16
sS'switchgrass'
p2869
I4
sS'beyond'
p2870
I47
sS'event'
p2871
I409
sS'perceptu'
p2872
I5
sS'safeti'
p2873
I149
sS'publish'
p2874
I114
sS'sustain'
p2875
I155
sS'7'
I13
sS'shockwav'
p2876
I1
sS'ass'
p2877
I2
sS'in-plant'
p2878
I1
sS'sepsi'
p2879
I5
sS'reason'
p2880
I167
sS'base'
p2881
I2049
sS'put'
p2882
I49
sS'ash'
p2883
I8
sS'turnout'
p2884
I4
sS'basi'
p2885
I130
sS'launch'
p2886
I66
sS'veloc'
p2887
I11
sS'round'
p2888
I55
sS'revolutionari'
p2889
I3
sS'heat-pump'
p2890
I1
sS'undergo'
p2891
I19
sS'assign'
p2892
I520
sS'on-sensor'
p2893
I1
sS'due-dat'
p2894
I4
sS'2-match'
p2895
I8
sS'elder'
p2896
I4
sS'set-valu'
p2897
I3
sS'reentrant'
p2898
I3
sS'miss'
p2899
I46
sS'blossom'
p2900
I4
sS'questionnair'
p2901
I7
sS'station'
p2902
I246
sS'scheme'
p2903
I433
sS'disagr'
p2904
I7
sS'schema'
p2905
I8
sS'adher'
p2906
I41
sS'underdevelop'
p2907
I4
sS'behind'
p2908
I35
sS'bidirect'
p2909
I4
sS'high-precis'
p2910
I2
sS'2-approxim'
p2911
I5
sS'feature-bas'
p2912
I1
sS'groceri'
p2913
I10
sS'bridg'
p2914
I32
sS'techno-econom'
p2915
I2
sS'consumpt'
p2916
I152
sS'toward'
p2917
I139
sS'steep-slop'
p2918
I2
sS'diversifi'
p2919
I14
sS'event-driven'
p2920
I2
sS'null'
p2921
I4
sS'lie'
p2922
I39
sS'tranch'
p2923
I12
sS'hospitalist'
p2924
I5
sS'cave'
p2925
I6
sS'useless'
p2926
I2
sS'well-develop'
p2927
I2
sS'block-tim'
p2928
I8
sS'choos'
p2929
I296
sS'quota'
p2930
I6
sS'multi-start'
p2931
I6
sS'pediatr'
p2932
I9
sS'alpha'
p2933
I8
sS'hands-on'
p2934
I3
sS'clear'
p2935
I103
sS'salari'
p2936
I7
sS'clean'
p2937
I18
sS'usual'
p2938
I125
sS'blend'
p2939
I22
sS'phenomenon'
p2940
I53
sS'service-domin'
p2941
I2
sS'tenet'
p2942
I2
sS'polymatroid'
p2943
I4
sS'northern'
p2944
I2
sS'two-factor'
p2945
I4
sS'scooter'
p2946
I2
sS'anesthetist'
p2947
I1
sS'queu'
p2948
I86
sS'production-inventori'
p2949
I9
sS'workforc'
p2950
I92
sS'multi-part'
p2951
I4
sS'intensifi'
p2952
I7
sS'nativ'
p2953
I5
sS'simplist'
p2954
I3
sS'treed'
p2955
I3
sS'biopsi'
p2956
I12
sS'end-of-lif'
p2957
I11
sS'whenev'
p2958
I14
sS'vial'
p2959
I5
sS'rare-ev'
p2960
I4
sS'hype'
p2961
I1
sS'x'
I26
sS'unbal'
p2962
I1
sS'knowledge-bas'
p2963
I3
sS'surpass'
p2964
I3
sS'backtrack'
p2965
I7
sS'close'
p2966
I231
sS'performance-bas'
p2967
I16
sS'particip'
p2968
I198
sS'deic'
p2969
I3
sS'platelet'
p2970
I7
sS'geo-loc'
p2971
I1
sS'unsolicit'
p2972
I4
sS'numer'
p2973
I526
sS'isol'
p2974
I42
sS'multilay'
p2975
I1
sS'distinguish'
p2976
I52
sS'psychometr'
p2977
I5
sS'c-approxim'
p2978
I2
sS'fast-fashion'
p2979
I1
sS'buzz'
p2980
I9
sS'vault'
p2981
I3
sS'multi-model'
p2982
I2
sS'e-tail'
p2983
I4
sS'primal-du'
p2984
I45
sS'batteri'
p2985
I58
sS'category-specif'
p2986
I1
sS'unsuccess'
p2987
I3
sS'stamp'
p2988
I4
sS'territori'
p2989
I10
sS'empti'
p2990
I26
sS'threaten'
p2991
I10
sS'experience-bas'
p2992
I2
sS'invis'
p2993
I1
sS'customersne'
p2994
I1
sS'imag'
p2995
I81
sS'crack'
p2996
I3
sS'deter'
p2997
I14
sS'coordin'
p2998
I378
sS'liver'
p2999
I49
sS'loom'
p3000
I1
sS'look'
p3001
I113
sS'ramif'
p3002
I8
sS'ex-post'
p3003
I17
sS'match'
p3004
I234
sS'fleet'
p3005
I155
sS'fixtur'
p3006
I3
sS'loos'
p3007
I12
sS'loop'
p3008
I31
sS'pack'
p3009
I42
sS'pragmat'
p3010
I4
sS'10000'
p3011
I16
sS'readi'
p3012
I33
sS'herein'
p3013
I2
sS'confound'
p3014
I10
sS'quadrat'
p3015
I138
sS'pedagog'
p3016
I13
sS'hemodialysi'
p3017
I2
sS'elector'
p3018
I5
sS'grant'
p3019
I29
sS'belong'
p3020
I32
sS'grand'
p3021
I4
sS'radiolog'
p3022
I10
sS'conflict'
p3023
I109
sS'maneuv'
p3024
I7
sS'optic'
p3025
I20
sS'imagin'
p3026
I4
sS'bonus'
p3027
I11
sS'inflat'
p3028
I13
sS'temporari'
p3029
I25
sS'user'
p3030
I492
sS'outbound'
p3031
I30
sS'self-serv'
p3032
I3
sS'older'
p3033
I14
sS'realiz'
p3034
I136
sS'auditor'
p3035
I1
sS'overbook'
p3036
I26
sS'predetermin'
p3037
I12
sS'abstain'
p3038
I2
sS'evacue'
p3039
I16
sS'administ'
p3040
I19
sS'elect'
p3041
I55
sS'time-constrain'
p3042
I3
sS'hazmat'
p3043
I13
sS'predomin'
p3044
I8
sS'informat'
p3045
I4
sS'subsequ'
p3046
I82
sS'march'
p3047
I1
sS'molecul'
p3048
I9
sS'game'
p3049
I640
sS'linehaul'
p3050
I2
sS'characterist'
p3051
I361
sS'like'
p3052
I243
sS'pillar'
p3053
I2
sS'resolv'
p3054
I62
sS'elaps'
p3055
I4
sS'manifest'
p3056
I8
sS'byproduct'
p3057
I4
sS'trade-in'
p3058
I9
sS'corpor'
p3059
I78
sS'popular'
p3060
I169
sS'cruis'
p3061
I12
sS'resold'
p3062
I2
sS'sketch'
p3063
I3
sS'urgenc'
p3064
I8
sS'creation'
p3065
I75
sS'customer-specif'
p3066
I4
sS'urgent'
p3067
I22
sS'sensor-bas'
p3068
I2
sS'multi-phas'
p3069
I3
sS'multi-typ'
p3070
I5
sS'syndrom'
p3071
I8
sS'resect'
p3072
I3
sS'debri'
p3073
I15
sS'minimax'
p3074
I10
sS'land-us'
p3075
I5
sS'run'
p3076
I197
sS'web-bas'
p3077
I26
sS'rug'
p3078
I1
sS'stem'
p3079
I23
sS'step'
p3080
I165
sS'subtract'
p3081
I4
sS'discus'
p3082
I3
sS'faith'
p3083
I3
sS'keynot'
p3084
I2
sS'traceabl'
p3085
I3
sS'in-depth'
p3086
I11
sS'idl'
p3087
I27
sS'block'
p3088
I139
sS'coevolut'
p3089
I4
sS'in-stor'
p3090
I12
sS'70'
p3091
I10
sS'moment-bas'
p3092
I1
sS'information-collect'
p3093
I2
sS'ensur'
p3094
I166
sS'loss-bas'
p3095
I3
sS'institut'
p3096
I103
sS'predisposit'
p3097
I4
sS'combinator'
p3098
I4
sS'credit-equ'
p3099
I2
sS'counterinsurg'
p3100
I9
sS'long-short'
p3101
I3
sS'topograph'
p3102
I3
sS'0-1'
p3103
I59
sS'newer'
p3104
I7
sS'specialti'
p3105
I15
sS'info'
p3106
I1
sS'multi-week'
p3107
I2
sS'transmitt'
p3108
I3
sS'role-play'
p3109
I2
sS'foresight'
p3110
I1
sS'decomposition-bas'
p3111
I12
sS'nonconvex'
p3112
I66
sS'similar'
p3113
I163
sS'tomographi'
p3114
I3
sS'lectur'
p3115
I7
sS'incomplet'
p3116
I73
sS'coalmin'
p3117
I2
sS'pre-disast'
p3118
I2
sS'base-stock'
p3119
I33
sS'kidney'
p3120
I43
sS'polygon'
p3121
I16
sS'pronounc'
p3122
I7
sS'titl'
p3123
I6
sS'buyer-sel'
p3124
I3
sS'unidirect'
p3125
I6
sS'peopl'
p3126
I166
sS'department'
p3127
I3
sS'contracept'
p3128
I4
sS'draw'
p3129
I86
sS'fed-cattl'
p3130
I5
sS'evas'
p3131
I1
sS'drag'
p3132
I1
sS'amplitud'
p3133
I2
sS'evad'
p3134
I2
sS'infrequ'
p3135
I8
sS'e'
I11
sS'orbit'
p3136
I7
sS'depth'
p3137
I22
sS'lumpabl'
p3138
I4
sS'etail'
p3139
I3
sS'co-author'
p3140
I3
sS'go'
p3141
I65
sS'benevol'
p3142
I2
sS'compact'
p3143
I55
sS'photovolta'
p3144
I12
sS'econometr'
p3145
I38
sS'skus'
p3146
I1
sS'intra-organiz'
p3147
I1
sS'airplan'
p3148
I16
sS'unverifi'
p3149
I4
sS'hierarchi'
p3150
I52
sS'wave'
p3151
I14
sS'imbalanc'
p3152
I7
sS'cellular'
p3153
I8
sS'nonatom'
p3154
I2
sS'gender'
p3155
I14
sS'price-on'
p3156
I6
sS'homeown'
p3157
I3
sS'within-cycl'
p3158
I2
sS'picker'
p3159
I6
sS'picket'
p3160
I2
sS'partially-observ'
p3161
I5
sS'policymak'
p3162
I9
sS'jump'
p3163
I58
sS'vaccin'
p3164
I145
sS'download'
p3165
I23
sS'cartel'
p3166
I2
sS'percentil'
p3167
I13
sS'non-quantifi'
p3168
I3
sS'p-addit'
p3169
I3
sS'cell'
p3170
I88
sS'geo-referenc'
p3171
I3
sS'experiment'
p3172
I219
sS'cut-gener'
p3173
I2
sS'service-ori'
p3174
I6
sS'becom'
p3175
I328
sS'obsolesc'
p3176
I11
sS'convert'
p3177
I54
sS'convers'
p3178
I47
sS'genr'
p3179
I3
sS'multi-carri'
p3180
I1
sS'converg'
p3181
I320
sS'chang'
p3182
I836
sS'gene'
p3183
I37
sS'chanc'
p3184
I86
sS'danger'
p3185
I10
sS'realloc'
p3186
I20
sS'wit'
p3187
I17
sS'blog'
p3188
I30
sS'reduced-form'
p3189
I3
sS'preemptive-repeat'
p3190
I1
sS'product-servic'
p3191
I1
sS'sub-network'
p3192
I4
sS'non-domin'
p3193
I8
sS'implic'
p3194
I339
sS'camera'
p3195
I9
sS'panel'
p3196
I175
sS'hydro'
p3197
I18
sS'rivalri'
p3198
I4
sS'retriev'
p3199
I33
sS'perceiv'
p3200
I57
sS'ride'
p3201
I15
sS'renov'
p3202
I3
sS'polynomial-tim'
p3203
I37
sS'meet'
p3204
I203
sS'inhibitor'
p3205
I3
sS'repairman'
p3206
I1
sS'control'
p3207
I1164
sS'multi-dimension'
p3208
I31
sS'sought'
p3209
I14
sS'cost-effici'
p3210
I7
sS'gas-fir'
p3211
I5
sS'acycl'
p3212
I10
sS'circular'
p3213
I6
sS'fare'
p3214
I48
sS'elus'
p3215
I2
sS'prolif'
p3216
I3
sS'brachytherapi'
p3217
I2
sS'farm'
p3218
I58
sS'bakeri'
p3219
I1
sS'intra-period'
p3220
I3
sS'famous'
p3221
I7
sS'encyclopedia'
p3222
I3
sS'agenda'
p3223
I5
sS'subtyp'
p3224
I2
sS'cattl'
p3225
I5
sS'fastest'
p3226
I14
sS'epidemiologist'
p3227
I2
sS'stepwis'
p3228
I3
sS'degradation-bas'
p3229
I4
sS'outer'
p3230
I17
sS'high-low'
p3231
I1
sS'two-tier'
p3232
I13
sS'options-bas'
p3233
I2
sS'self-manag'
p3234
I3
sS'nanosci'
p3235
I1
sS'fossil-fuel'
p3236
I1
sS'handl'
p3237
I183
sS'auto'
p3238
I16
sS'dike'
p3239
I4
sS'literaci'
p3240
I1
sS'cross-rank'
p3241
I4
sS'front'
p3242
I24
sS'refuel'
p3243
I10
sS'assess'
p3244
I488
sS'inter-mod'
p3245
I3
sS'guard'
p3246
I7
sS'square-root'
p3247
I3
sS'slide'
p3248
I7
sS'mode'
p3249
I129
sS'gamma-quasi-cliqu'
p3250
I2
sS'superaddit'
p3251
I9
sS'upward'
p3252
I6
sS'front-end'
p3253
I2
sS'nonparametr'
p3254
I46
sS'globe'
p3255
I7
sS'sandi'
p3256
I1
sS'combinatori'
p3257
I154
sS'activity-travel'
p3258
I3
sS'hyperbol'
p3259
I13
sS'special'
p3260
I281
sS'railyard'
p3261
I2
sS'influenc'
p3262
I430
sS'fathom'
p3263
I4
sS'discharg'
p3264
I54
sS'on-lin'
p3265
I43
sS'suitabl'
p3266
I77
sS'hardwar'
p3267
I26
sS'back-offic'
p3268
I1
sS'memet'
p3269
I3
sS'umbrella'
p3270
I3
sS'manipul'
p3271
I45
sS'thorium'
p3272
I2
sS'ect'
p3273
I3
sS'green-up'
p3274
I3
sS'advisor'
p3275
I3
sS'hypercub'
p3276
I8
sS'farmland'
p3277
I2
sS'timet'
p3278
I32
sS'unwant'
p3279
I8
sS'1981'
p3280
I4
sS'keep'
p3281
I69
sS'counterpart'
p3282
I35
sS'keen'
p3283
I2
sS'geometri'
p3284
I22
sS'consumption-invest'
p3285
I2
sS'airborn'
p3286
I14
sS'zero-sum'
p3287
I17
sS'blogger'
p3288
I7
sS'qualiti'
p3289
I1052
sS'maintenance-rel'
p3290
I1
sS'cardiac'
p3291
I30
sS'disaggreg'
p3292
I13
sS'adjoint'
p3293
I2
sS'attach'
p3294
I10
sS'attack'
p3295
I222
sS'subtour'
p3296
I2
sS'linear-program'
p3297
I3
sS'privaci'
p3298
I30
sS'dynamic-program'
p3299
I3
sS'final'
p3300
I117
sS'pathogen'
p3301
I11
sS'prone'
p3302
I16
sS'2-3'
p3303
I2
sS'deconstruct'
p3304
I2
sS'fuzzi'
p3305
I21
sS'methodolog'
p3306
I521
sS'thermochem'
p3307
I2
sS'feint'
p3308
I2
sS'spatially-explicit'
p3309
I3
sS'tissu'
p3310
I23
sS'rst'
p3311
I3
sS'banknot'
p3312
I1
sS'ultimatum'
p3313
I2
sS'bioethanol'
p3314
I1
sS'bed'
p3315
I81
sS'shill'
p3316
I3
sS'claim'
p3317
I43
sS'hop-constrain'
p3318
I1
sS'bet'
p3319
I8
sS'exhibit'
p3320
I106
sS'deliveri'
p3321
I341
sS'wholesale-pric'
p3322
I1
sS'tabu'
p3323
I36
sS'e-visit'
p3324
I3
sS'time-sensit'
p3325
I14
sS'tabl'
p3326
I22
sS'ventil'
p3327
I2
sS'border'
p3328
I27
sS'recharg'
p3329
I9
sS'uptak'
p3330
I2
sS'unawar'
p3331
I5
sS'tactic'
p3332
I80
sS'multi-resolut'
p3333
I8
sS'detector'
p3334
I19
sS'singl'
p3335
I435
sS'bike-shar'
p3336
I2
sS'radioact'
p3337
I11
sS'deploy'
p3338
I158
sS'walkup'
p3339
I4
sS'step-siz'
p3340
I4
sS'discov'
p3341
I59
sS'presid'
p3342
I4
sS'2-period'
p3343
I4
sS'connected'
p3344
I4
sS'branchwidth'
p3345
I12
sS'half-lif'
p3346
I3
sS'issuanc'
p3347
I4
sS'inde'
p3348
I9
sS'upsel'
p3349
I3
sS'constrain'
p3350
I171
sS'indoor'
p3351
I2
sS'airlift'
p3352
I8
sS'upper-bound'
p3353
I2
sS'high-level'
p3354
I15
sS'rotation-tour'
p3355
I1
sS'time-driven'
p3356
I1
sS'winner'
p3357
I79
sS'dispers'
p3358
I51
sS'manufactur'
p3359
I856
sS'won'
p3360
I3
sS'fuel'
p3361
I161
sS'discontinu'
p3362
I35
sS'pseudo-boolean'
p3363
I1
sS'120'
p3364
I2
sS'joint'
p3365
I336
sS'c-mu'
p3366
I4
sS'en-rout'
p3367
I11
sS'buyer'
p3368
I309
sS'gray'
p3369
I17
sS'polyomino'
p3370
I1
sS'enabl'
p3371
I298
sS'revamp'
p3372
I1
sS'contain'
p3373
I263
sS'brigad'
p3374
I13
sS'e-coupon'
p3375
I2
sS'dominant-strategi'
p3376
I5
sS'smooth'
p3377
I84
sS'terrain'
p3378
I7
sS'microgrid'
p3379
I4
sS'computer'
p3380
I4
sS'mileston'
p3381
I8
sS'meatpack'
p3382
I4
sS'aros'
p3383
I3
sS'tend'
p3384
I70
sS'hit-and-run'
p3385
I1
sS'realign'
p3386
I3
sS'written'
p3387
I23
sS'wavelet'
p3388
I24
sS'benchmark'
p3389
I144
sS'neither'
p3390
I22
sS'contraflow'
p3391
I4
sS'multi-item'
p3392
I24
sS'key'
p3393
I384
sS'overhaul'
p3394
I7
sS'monitor'
p3395
I253
sS'career'
p3396
I41
sS'at-risk'
p3397
I3
sS'admit'
p3398
I29
sS'moistur'
p3399
I3
sS'budgetari'
p3400
I10
sS'k-connect'
p3401
I3
sS'quit'
p3402
I46
sS'slowli'
p3403
I7
sS'cent'
p3404
I5
sS'treat'
p3405
I83
sS'stakehold'
p3406
I87
sS'forestal'
p3407
I4
sS'pie'
p3408
I1
sS'artifact-centr'
p3409
I2
sS'plausibl'
p3410
I18
sS'link-nod'
p3411
I4
sS'replic'
p3412
I35
sS'debtor'
p3413
I1
sS'novel'
p3414
I354
sS'harder'
p3415
I11
sS'contextu'
p3416
I15
sS'harden'
p3417
I7
sS'cut-set'
p3418
I4
sS'homothet'
p3419
I6
sS'engag'
p3420
I110
sS'integer-program'
p3421
I7
sS'demo'
p3422
I8
sS'neuron'
p3423
I2
sS'risk-shar'
p3424
I3
sS'overdiagnosi'
p3425
I2
sS'revis'
p3426
I44
sS'reviv'
p3427
I3
sS'welcom'
p3428
I13
sS'generic'
p3429
I61
sS'parti'
p3430
I106
sS'began'
p3431
I6
sS'time-chang'
p3432
I3
sS'speaker'
p3433
I20
sS'underground'
p3434
I13
sS'forestri'
p3435
I2
sS'absorb'
p3436
I11
sS'forgotten'
p3437
I1
sS'1-5'
p3438
I5
sS'effect'
p3439
I1862
sS'sooner'
p3440
I3
sS'silvicultur'
p3441
I1
sS'sorter'
p3442
I3
sS'withwithout'
p3443
I4
sS'supply-sid'
p3444
I4
sS'well'
p3445
I847
sS'high-perform'
p3446
I7
sS'weblog'
p3447
I1
sS'guidanc'
p3448
I40
sS'sibl'
p3449
I7
sS'distanc'
p3450
I216
sS'42'
p3451
I3
sS'dose'
p3452
I62
sS'timeshar'
p3453
I4
sS'distant'
p3454
I3
sS'virtual'
p3455
I79
sS'skill'
p3456
I117
sS'41'
p3457
I5
sS'post-disast'
p3458
I17
sS'low-level'
p3459
I4
sS'non-econom'
p3460
I2
sS'no-show'
p3461
I33
sS'densiti'
p3462
I71
sS'warrant'
p3463
I4
sS'homework'
p3464
I4
sS'biomolecular'
p3465
I2
sS'railcar'
p3466
I21
sS'2-club'
p3467
I6
sS'burden'
p3468
I26
sS'loss'
p3469
I258
sS'lost'
p3470
I87
sS'2013-2014'
p3471
I2
sS'necessari'
p3472
I127
sS'lose'
p3473
I27
sS'divest'
p3474
I3
sS'page'
p3475
I29
sS'candi'
p3476
I2
sS'shed'
p3477
I42
sS'twitter'
p3478
I6
sS'phenomena'
p3479
I41
sS'pre-releas'
p3480
I1
sS'vessel'
p3481
I40
sS'contin'
p3482
I4
sS'home'
p3483
I74
sS'librari'
p3484
I58
sS'semimartingal'
p3485
I2
sS'entryegress'
p3486
I2
sS'competitor'
p3487
I74
sS'pinpoint'
p3488
I5
sS'overlay'
p3489
I3
sS'broad'
p3490
I79
sS'overlap'
p3491
I40
sS'e-mail'
p3492
I10
sS'estim'
p3493
I1232
sS'hinder'
p3494
I13
sS'encourag'
p3495
I72
sS'workgroup'
p3496
I1
sS'real-world'
p3497
I149
sS'journal'
p3498
I26
sS'usag'
p3499
I106
sS'offset'
p3500
I12
sS'option-bas'
p3501
I1
sS'monetari'
p3502
I21
sS'quarter'
p3503
I13
sS'freedom'
p3504
I10
sS'turn-around'
p3505
I3
sS'primal'
p3506
I40
sS'in-hous'
p3507
I23
sS'diagon'
p3508
I4
sS'long-tail'
p3509
I1
sS'downgrad'
p3510
I1
sS'inner'
p3511
I22
sS'holist'
p3512
I16
sS'n-1'
p3513
I1
sS'subsum'
p3514
I5
sS'triangular'
p3515
I3
sS'histogram'
p3516
I2
sS'neutral'
p3517
I28
sS'gain'
p3518
I209
sS'technician'
p3519
I4
sS'overflow'
p3520
I18
sS'highest'
p3521
I55
sS'eat'
p3522
I1
sS'filtrat'
p3523
I2
sS'displac'
p3524
I8
sS'asynchron'
p3525
I18
sS'limit'
p3526
I698
sS'indefinit'
p3527
I5
sS'pre-select'
p3528
I5
sS'steepest'
p3529
I2
sS'search-bas'
p3530
I2
sS'display'
p3531
I62
sS'subordin'
p3532
I9
sS'atyp'
p3533
I1
sS'reciproc'
p3534
I18
sS'evalu'
p3535
I824
sS'coal-fir'
p3536
I3
sS'multi-thread'
p3537
I5
sS'd-dimension'
p3538
I2
sS'second-highest'
p3539
I3
sS'contest'
p3540
I46
sS'customer-level'
p3541
I4
sS'futur'
p3542
I533
sS'rememb'
p3543
I1
sS'conting'
p3544
I94
sS'windfal'
p3545
I8
sS'star'
p3546
I4
sS'bifurc'
p3547
I3
sS'staf'
p3548
I154
sS'truth-induc'
p3549
I3
sS'rural'
p3550
I19
sS'overinvest'
p3551
I6
sS'appoint'
p3552
I153
sS'portion'
p3553
I37
sS'tightest'
p3554
I3
sS'non-cooper'
p3555
I4
sS'four-year'
p3556
I3
sS'plenari'
p3557
I3
sS'whose'
p3558
I193
sS'accur'
p3559
I206
sS'neurodegen'
p3560
I2
sS'time-vari'
p3561
I33
sS'swap'
p3562
I39
sS'preprocess'
p3563
I27
sS'obligor'
p3564
I4
sS'underag'
p3565
I6
sS'downstream'
p3566
I56
sS'dutch'
p3567
I1
sS'voic'
p3568
I16
sS'govern'
p3569
I213
sS'affect'
p3570
I548
sS'vast'
p3571
I22
sS'defender-interdictor'
p3572
I2
sS'poly-tim'
p3573
I4
sS'propens'
p3574
I21
sS'vector'
p3575
I108
sS'cholesterol'
p3576
I2
sS'simplex-typ'
p3577
I1
sS'markov'
p3578
I2
sS'graph-bas'
p3579
I4
sS'demand-sid'
p3580
I10
sS'risk-constrain'
p3581
I2
sS'aggreg'
p3582
I228
sS'illumin'
p3583
I13
sS'even'
p3584
I237
sS'p-center'
p3585
I3
sS'pace'
p3586
I6
sS'altitud'
p3587
I5
sS'asid'
p3588
I1
sS'two-settl'
p3589
I5
sS'steiner'
p3590
I2
sS'new'
p3591
I1825
sS'net'
p3592
I75
sS'ever'
p3593
I17
sS'pandem'
p3594
I72
sS'traffick'
p3595
I2
sS'elimin'
p3596
I63
sS'centric'
p3597
I2
sS'load-depend'
p3598
I1
sS'never'
p3599
I23
sS'resuppli'
p3600
I5
sS'met'
p3601
I25
sS'meteorolog'
p3602
I3
sS'100'
p3603
I46
sS'101'
p3604
I2
sS'interpret'
p3605
I104
sS'105'
p3606
I3
sS'dri'
p3607
I3
sS'credit'
p3608
I169
sS'permit'
p3609
I63
sS'counti'
p3610
I14
sS'volunt'
p3611
I22
sS'campaign'
p3612
I47
sS'tertiari'
p3613
I5
sS'avenu'
p3614
I10
sS'snob-app'
p3615
I2
sS'moral'
p3616
I18
sS'soybean'
p3617
I2
sS'instabl'
p3618
I12
sS'mammogram'
p3619
I6
sS'landfil'
p3620
I4
sS'bike'
p3621
I13
sS'call'
p3622
I434
sS'recommend'
p3623
I227
sS'type'
p3624
I691
sS'tell'
p3625
I7
sS'warp'
p3626
I5
sS'pay-as-bid'
p3627
I3
sS'warn'
p3628
I15
sS'warm'
p3629
I13
sS'adult'
p3630
I16
sS'ward'
p3631
I14
sS'unschedul'
p3632
I6
sS'room'
p3633
I98
sS'setup'
p3634
I67
sS'pre-plan'
p3635
I3
sS'signomi'
p3636
I2
sS'root'
p3637
I56
sS'undirect'
p3638
I14
sS'defer'
p3639
I6
sS'kinet'
p3640
I5
sS'climat'
p3641
I52
sS'give'
p3642
I359
sS'quantil'
p3643
I49
sS'quot'
p3644
I37
sS'polic'
p3645
I20
sS'soror'
p3646
I1
sS'faulti'
p3647
I3
sS'multi-path'
p3648
I1
sS'autonomi'
p3649
I9
sS'dual-channel'
p3650
I1
sS'confin'
p3651
I3
sS'answer'
p3652
I87
sS'negoti'
p3653
I74
sS'updat'
p3654
I203
sS'value-bas'
p3655
I6
sS'cross-entropi'
p3656
I2
sS'synchroni'
p3657
I1
sS'substanc'
p3658
I12
sS'geolog'
p3659
I5
sS'schoolchildren'
p3660
I3
sS'misfit'
p3661
I2
sS'substant'
p3662
I3
sS'tenni'
p3663
I1
sS'loyalti'
p3664
I26
sS'biotechnolog'
p3665
I7
sS'attempt'
p3666
I126
sS'third'
p3667
I47
sS'maintain'
p3668
I159
sS'pareto-improv'
p3669
I1
sS'fortifi'
p3670
I6
sS'deck'
p3671
I2
sS'privileg'
p3672
I4
sS'outpati'
p3673
I48
sS'non-convex'
p3674
I48
sS'streamlin'
p3675
I15
sS'pharma'
p3676
I3
sS'dose-volum'
p3677
I2
sS'crew'
p3678
I99
sS'better'
p3679
I439
sS'persist'
p3680
I30
sS'time-seri'
p3681
I14
sS'repairmen'
p3682
I3
sS'anim'
p3683
I16
sS'therapi'
p3684
I77
sS'promin'
p3685
I19
sS'paratransit'
p3686
I2
sS'overestim'
p3687
I9
sS'promis'
p3688
I121
sS'walk-in'
p3689
I14
sS'noncompet'
p3690
I3
sS'grammar'
p3691
I9
sS'wage'
p3692
I13
sS'went'
p3693
I2
sS'oblig'
p3694
I14
sS'side'
p3695
I104
sS'bone'
p3696
I3
sS'mean'
p3697
I283
sS'nave'
p3698
I4
sS'enorm'
p3699
I9
sS'air-travel'
p3700
I8
sS'combust'
p3701
I6
sS'open-sourc'
p3702
I38
sS'extract'
p3703
I108
sS'contend'
p3704
I5
sS'unbound'
p3705
I18
sS'goodwil'
p3706
I4
sS'gradient'
p3707
I80
sS'crucial'
p3708
I62
sS'content'
p3709
I162
sS'rewrit'
p3710
I2
sS'reader'
p3711
I16
sS'quantifi'
p3712
I216
sS'linear'
p3713
I752
sS'knowledgebas'
p3714
I2
sS'transduct'
p3715
I2
sS'situat'
p3716
I213
sS'infin'
p3717
I13
sS'ineffici'
p3718
I86
sS'redempt'
p3719
I2
sS'247'
p3720
I2
sS'non-posit'
p3721
I3
sS'welfar'
p3722
I134
sS'tractabl'
p3723
I100
sS'ill-condit'
p3724
I3
sS'eco-friend'
p3725
I5
sS'isi'
p3726
I1
sS'100000'
p3727
I6
sS'day-ahead'
p3728
I28
sS'semi-infinit'
p3729
I4
sS'grade'
p3730
I21
sS'three-dimension'
p3731
I2
sS'biomed'
p3732
I6
sS'unlik'
p3733
I19
sS'multimod'
p3734
I9
sS'series-parallel'
p3735
I2
sS'massiv'
p3736
I33
sS'payload'
p3737
I7
sS'p-hub'
p3738
I1
sS'threshold-typ'
p3739
I6
sS'acquaint'
p3740
I1
sS'sometim'
p3741
I49
sS'transitori'
p3742
I1
sS'dwell'
p3743
I5
sS'internet-bas'
p3744
I7
sS'outag'
p3745
I20
sS'inflow'
p3746
I9
sS'microsimul'
p3747
I10
sS'medial'
p3748
I1
sS'full-tim'
p3749
I5
sS'somewhat'
p3750
I14
sS'peculiar'
p3751
I4
sS'symptom'
p3752
I6
sS'keyword'
p3753
I32
sS'matter'
p3754
I36
sS'anxieti'
p3755
I7
sS'bidder'
p3756
I172
sS'beginn'
p3757
I2
sS'modern'
p3758
I58
sS'mind'
p3759
I14
sS'mine'
p3760
I235
sS'unicast'
p3761
I2
sS'seed'
p3762
I26
sS'seen'
p3763
I45
sS'seem'
p3764
I40
sS'churn'
p3765
I5
sS'seek'
p3766
I210
sS'avion'
p3767
I5
sS'almost-sur'
p3768
I2
sS'bounded-r'
p3769
I2
sS'quarterback'
p3770
I3
sS'sole-sourc'
p3771
I2
sS'terrestri'
p3772
I3
sS'marin'
p3773
I6
sS'path-delay'
p3774
I2
sS'regular'
p3775
I150
sS'prematur'
p3776
I4
sS'tradit'
p3777
I380
sS'remanufactur'
p3778
I145
sS'simplic'
p3779
I16
sS'simplif'
p3780
I10
sS'alarm'
p3781
I17
sS'm'
I26
sS'part-typ'
p3782
I1
sS'split-plot'
p3783
I1
sS'interrel'
p3784
I15
sS'medicar'
p3785
I2
sS'influenza-like-il'
p3786
I1
sS'subgradi'
p3787
I17
sS'gain-loss'
p3788
I4
sS'hunger'
p3789
I1
sS'visitor'
p3790
I1
sS'probe'
p3791
I11
sS'speedup'
p3792
I16
sS'single-index'
p3793
I2
sS'post-process'
p3794
I1
sS'capital-intens'
p3795
I5
sS'continuous-tim'
p3796
I27
sS'despit'
p3797
I28
sS'trade-off'
p3798
I159
sS'acquir'
p3799
I65
sS'explain'
p3800
I180
sS'sugar'
p3801
I5
sS'explic'
p3802
I2
sS'idiosyncrat'
p3803
I5
sS'well-establish'
p3804
I8
sS'11'
p3805
I14
sS'efficiency-driven'
p3806
I4
sS'project-level'
p3807
I3
sS'stop'
p3808
I110
sS'compli'
p3809
I12
sS'coast'
p3810
I8
sS'safety-crit'
p3811
I2
sS'hydropow'
p3812
I3
sS'earn'
p3813
I21
sS'bar'
p3814
I2
sS'sacrific'
p3815
I8
sS'bay'
p3816
I3
sS'bag'
p3817
I8
sS'bad'
p3818
I21
sS'troop'
p3819
I6
sS'ban'
p3820
I5
sS'crowd-sourc'
p3821
I2
sS'linguist'
p3822
I7
sS'microscopi'
p3823
I3
sS'subexponenti'
p3824
I3
sS'attest'
p3825
I3
sS'average-cas'
p3826
I2
sS'hydrocarbon'
p3827
I1
sS'subject'
p3828
I361
sS'one-shot'
p3829
I4
sS'01'
p3830
I6
sS'time-scal'
p3831
I3
sS'sail'
p3832
I3
sS'simplest'
p3833
I8
sS'attribut'
p3834
I210
sS'conjectur'
p3835
I33
sS'nonatomic-gam'
p3836
I1
sS'lazi'
p3837
I3
sS'upfront'
p3838
I9
sS'adolesc'
p3839
I6
sS'uncertainti'
p3840
I1011
sS'epilept'
p3841
I3
sS'ontolog'
p3842
I7
sS'height'
p3843
I8
sS'market-mak'
p3844
I3
sS'aftermath'
p3845
I4
sS'liabil'
p3846
I19
sS'well-studi'
p3847
I11
sS'recur'
p3848
I9
sS'multiplay'
p3849
I2
sS'three'
p3850
I355
sS'enrol'
p3851
I23
sS'specul'
p3852
I12
sS'trigger'
p3853
I34
sS'interest'
p3854
I410
sS'basic'
p3855
I132
sS'basin'
p3856
I7
sS'tini'
p3857
I2
sS'mushroom'
p3858
I1
sS'suppress'
p3859
I27
sS'efficaci'
p3860
I72
sS'tank'
p3861
I13
sS'itinerari'
p3862
I25
sS'affirm'
p3863
I4
sS'servic'
p3864
I2066
sS'gasolin'
p3865
I26
sS'asset-li'
p3866
I4
sS'calcul'
p3867
I150
sS'motorist'
p3868
I4
sS'occas'
p3869
I5
sS'anchor'
p3870
I17
sS'spawn'
p3871
I9
sS'seven'
p3872
I20
sS'krige'
p3873
I22
sS'metropolitan'
p3874
I21
sS'theatr'
p3875
I4
sS'submatrix'
p3876
I2
sS'iv'
p3877
I4
sS'ii'
p3878
I79
sS'cant'
p3879
I6
sS'ic'
p3880
I1
sS'ie'
p3881
I184
sS'sever'
p3882
I872
sS'grown'
p3883
I22
sS'microstructur'
p3884
I6
sS'receiv'
p3885
I192
sS'make'
p3886
I960
sS'quant'
p3887
I1
sS'cellulos'
p3888
I14
sS'redevelop'
p3889
I8
sS'kit'
p3890
I7
sS'delight'
p3891
I1
sS'pre-launch'
p3892
I3
sS'aka'
p3893
I4
sS'qualif'
p3894
I14
sS'not-for-profit'
p3895
I5
sS'stimuli'
p3896
I5
sS'inherit'
p3897
I4
sS'qualit'
p3898
I62
sS'programa'
p3899
I1
sS'programm'
p3900
I7
sS'800'
p3901
I5
sS'left'
p3902
I16
sS'identifi'
p3903
I842
sS'nowaday'
p3904
I5
sS'unfair'
p3905
I3
sS'bandwidth'
p3906
I26
sS'human'
p3907
I194
sS'plug-in'
p3908
I16
sS'yes'
p3909
I4
sS'yet'
p3910
I150
sS're-admiss'
p3911
I3
sS'character'
p3912
I595
sS'save'
p3913
I170
sS'globalloc'
p3914
I4
sS'applic'
p3915
I1001
sS'kanban'
p3916
I3
sS'build-to-ord'
p3917
I2
sS'supervisori'
p3918
I1
sS'flowtim'
p3919
I1
sS'background'
p3920
I32
sS'elabor'
p3921
I19
sS'time-slot'
p3922
I1
sS'athlet'
p3923
I1
sS'negat'
p3924
I106
sS'martingal'
p3925
I22
sS'unnecessari'
p3926
I17
sS'deal'
p3927
I164
sS'interv'
p3928
I106
sS'disord'
p3929
I7
sS'maxim'
p3930
I748
sS'holdup'
p3931
I4
sS'revel'
p3932
I15
sS'intern'
p3933
I147
sS'multi-shor'
p3934
I1
sS'heritag'
p3935
I3
sS'inact'
p3936
I2
sS'short-term'
p3937
I62
sS'first-stag'
p3938
I12
sS'sprawl'
p3939
I3
sS'insensit'
p3940
I12
sS'normal'
p3941
I105
sS'birth-death'
p3942
I5
sS'tracker'
p3943
I1
sS'willingness-to-pay'
p3944
I20
sS'real-siz'
p3945
I2
sS'unbundl'
p3946
I8
sS'compress'
p3947
I11
sS'burn'
p3948
I15
sS'buri'
p3949
I1
sS'inter-'
p3950
I2
sS'promot'
p3951
I133
sS'unsaf'
p3952
I1
sS'conceal'
p3953
I9
sS'quasilinear'
p3954
I2
sS'attrit'
p3955
I10
sS'3-competit'
p3956
I3
sS'commit'
p3957
I153
sS'sequestr'
p3958
I4
sS'marshal'
p3959
I2
sS'capacit'
p3960
I83
sS'decision-analyt'
p3961
I6
sS'telephon'
p3962
I10
sS'low-'
p3963
I1
sS'contriv'
p3964
I1
sS'shelf-spac'
p3965
I4
sS'lieu'
p3966
I4
sS'1990s'
p3967
I3
sS'manageri'
p3968
I149
sS'genotyp'
p3969
I4
sS'preemption'
p3970
I5
sS'riskier'
p3971
I5
sS'overus'
p3972
I3
sS'decontamin'
p3973
I3
sS'imit'
p3974
I11
sS'editor'
p3975
I18
sS'fraction'
p3976
I93
sS'analysi'
p3977
I1372
sS'form'
p3978
I425
sS'forc'
p3979
I140
sS'reassign'
p3980
I7
sS'fora'
p3981
I3
sS'forg'
p3982
I3
sS'surveil'
p3983
I63
sS'substrat'
p3984
I2
sS'preoper'
p3985
I2
sS'analyst'
p3986
I34
sS'one-way'
p3987
I4
sS'multisourc'
p3988
I2
sS'unrel'
p3989
I9
sS'relationship-specif'
p3990
I2
sS'classif'
p3991
I147
sS'featur'
p3992
I384
sS'classic'
p3993
I191
sS'covert'
p3994
I2
sS'diagnosi'
p3995
I57
sS'sale'
p3996
I380
sS'diagnost'
p3997
I47
sS'anthrax'
p3998
I8
sS'ship'
p3999
I125
sS'graft'
p4000
I10
sS'threshold-bas'
p4001
I3
sS'intang'
p4002
I10
sS'excel'
p4003
I22
sS'tardi'
p4004
I25
sS'multi-period'
p4005
I94
sS'communic'
p4006
I236
sS'unlimit'
p4007
I6
sS'matur'
p4008
I38
sS'handicap'
p4009
I3
sS'journey'
p4010
I10
sS'non-norm'
p4011
I4
sS're-evalu'
p4012
I4
sS'weekend'
p4013
I7
sS'subdivis'
p4014
I3
sS'billion'
p4015
I44
sS'femal'
p4016
I9
sS'furthermor'
p4017
I3
sS'pseudo'
p4018
I5
sS'ignor'
p4019
I62
sS'annuiti'
p4020
I4
sS'daili'
p4021
I102
sS'skip'
p4022
I1
sS'invent'
p4023
I18
sS'mild'
p4024
I27
sS'mile'
p4025
I26
sS'unconstrain'
p4026
I28
sS'closed-loop'
p4027
I24
sS'mill'
p4028
I16
sS'milk'
p4029
I14
sS'hierarch'
p4030
I83
sS'depend'
p4031
I649
sS'intermedi'
p4032
I47
sS'multicommod'
p4033
I18
sS'taxonom'
p4034
I3
sS'0'
I21
sS'retri'
p4035
I4
sS'editori'
p4036
I5
sS'sociolog'
p4037
I2
sS'string'
p4038
I3
sS'asymptot'
p4039
I149
sS'friction'
p4040
I8
sS'1995'
p4041
I5
sS'insignific'
p4042
I3
sS'die'
p4043
I2
sS'bi-level'
p4044
I41
sS'restor'
p4045
I28
sS'iter'
p4046
I209
sS'magnet'
p4047
I6
sS'item'
p4048
I272
sS'signic'
p4049
I3
sS'open-pit-min'
p4050
I2
sS'm-machin'
p4051
I1
sS'minimis'
p4052
I7
sS'incarcer'
p4053
I4
sS'firmsstrateg'
p4054
I5
sS'inputoutput'
p4055
I6
sS'location-inventori'
p4056
I3
sS'suspect'
p4057
I5
sS'atomist'
p4058
I4
sS'hered'
p4059
I2
sS'deriv'
p4060
I657
sS'nuanc'
p4061
I5
sS'many-serv'
p4062
I29
sS'tangent'
p4063
I2
sS'coincid'
p4064
I12
sS'wait'
p4065
I343
sS'box'
p4066
I24
sS'invit'
p4067
I20
sS'shift'
p4068
I145
sS'unsupervis'
p4069
I10
sS'bot'
p4070
I1
sS'multicast'
p4071
I8
sS'high-tech'
p4072
I11
sS'extrem'
p4073
I119
sS'imbal'
p4074
I26
sS'pro-soci'
p4075
I4
sS'modul'
p4076
I82
sS'uncensor'
p4077
I3
sS'surmount'
p4078
I3
sS'single-stag'
p4079
I5
sS'transplant'
p4080
I66
sS'symbiot'
p4081
I4
sS'wealth'
p4082
I29
sS'univers'
p4083
I63
sS'visit'
p4084
I77
sS'aspirin'
p4085
I2
sS'business-model'
p4086
I1
sS'sampling-bas'
p4087
I8
sS'curriculum'
p4088
I32
sS'vendor-manag'
p4089
I3
sS'downtown'
p4090
I3
sS'tandem'
p4091
I23
sS'rigid'
p4092
I7
sS'repow'
p4093
I1
sS'examin'
p4094
I900
sS'out-of-stock'
p4095
I5
sS'effort'
p4096
I417
sS'run-tim'
p4097
I5
sS'coalit'
p4098
I43
sS'flu'
p4099
I31
sS'uniqu'
p4100
I245
sS'imper'
p4101
I6
sS'fli'
p4102
I14
sS'wallet'
p4103
I2
sS'foreclosur'
p4104
I5
sS'imped'
p4105
I10
sS'two-serv'
p4106
I4
sS'nearest'
p4107
I8
sS'complimentari'
p4108
I3
sS'genesi'
p4109
I3
sS'predict'
p4110
I798
sS'agent'
p4111
I501
sS'bipartit'
p4112
I16
sS'time-phas'
p4113
I2
sS'council'
p4114
I3
sS'agenc'
p4115
I98
sS'tilt'
p4116
I6
sS'till'
p4117
I3
sS'pure'
p4118
I52
sS'tile'
p4119
I4
sS'non-overlap'
p4120
I4
sS'pathway'
p4121
I26
sS'map'
p4122
I126
sS'risk-neutr'
p4123
I34
sS'modal'
p4124
I15
sS'intrud'
p4125
I6
sS'141'
p4126
I2
sS'may'
p4127
I1072
sS'max'
p4128
I7
sS'usabl'
p4129
I18
sS'intrus'
p4130
I9
sS'membership'
p4131
I14
sS'underscor'
p4132
I3
sS'grow'
p4133
I151
sS'man'
p4134
I4
sS'utility-bas'
p4135
I3
sS'tale'
p4136
I1
sS'switch'
p4137
I114
sS'deposit'
p4138
I11
sS'basket'
p4139
I27
sS'talk'
p4140
I1039
sS'gradual'
p4141
I13
sS'graduat'
p4142
I36
sS'equip'
p4143
I128
sS'entitl'
p4144
I3
sS'meet-pass'
p4145
I1
sS'equit'
p4146
I17
sS'entiti'
p4147
I48
sS'reinforc'
p4148
I43
sS'group'
p4149
I364
sS'acceptreject'
p4150
I8
sS'polici'
p4151
I1840
sS'dysfunct'
p4152
I3
sS'low-dimension'
p4153
I9
sS'mail'
p4154
I11
sS'main'
p4155
I233
sS'misconcept'
p4156
I4
sS'within'
p4157
I569
sS'financi'
p4158
I365
sS'automobil'
p4159
I21
sS'nearly-optim'
p4160
I2
sS'initi'
p4161
I321
sS'verifi'
p4162
I59
sS'best-repli'
p4163
I5
sS'teller'
p4164
I3
sS'possess'
p4165
I29
sS'outweigh'
p4166
I8
sS'workload'
p4167
I94
sS'newsvendor'
p4168
I105
sS'focuss'
p4169
I2
sS'time-spac'
p4170
I2
sS'rock'
p4171
I2
sS'hijack'
p4172
I4
sS'time-st'
p4173
I2
sS'agil'
p4174
I18
sS'continu'
p4175
I427
sS'redistribut'
p4176
I15
sS'supply-demand'
p4177
I9
sS'surcharg'
p4178
I2
sS'baselin'
p4179
I34
sS'artifici'
p4180
I29
sS'3rd'
p4181
I4
sS'hydroelectr'
p4182
I3
sS'bailout'
p4183
I3
sS'metamodel'
p4184
I32
sS'sensor'
p4185
I263
sS'correct'
p4186
I100
sS'diseas'
p4187
I236
sS'vinyl'
p4188
I1
sS'triangl'
p4189
I8
sS'follow-on'
p4190
I4
sS'ore'
p4191
I8
sS'frequenc'
p4192
I85
sS'thing'
p4193
I19
sS'vision'
p4194
I21
sS'standbi'
p4195
I5
sS'pure-jump'
p4196
I2
sS'principl'
p4197
I108
sS'think'
p4198
I51
sS'frequent'
p4199
I89
sS'first'
p4200
I639
sS'oppon'
p4201
I10
sS'carri'
p4202
I101
sS'time-of-day'
p4203
I7
sS'acquisit'
p4204
I86
sS'long'
p4205
I232
sS'oppos'
p4206
I27
sS'co-creat'
p4207
I6
sS'p-valu'
p4208
I1
sS'fierc'
p4209
I3
sS'indivis'
p4210
I11
sS'ambul'
p4211
I89
sS'multi-funct'
p4212
I1
sS're-examin'
p4213
I5
sS'escort'
p4214
I1
sS'daunt'
p4215
I5
sS'proposit'
p4216
I20
sS'ambulatori'
p4217
I3
sS'socio-techn'
p4218
I7
sS'motiv'
p4219
I214
sS'multi-trip'
p4220
I1
sS'buy-now'
p4221
I7
sS'unweight'
p4222
I5
sS'broadcast'
p4223
I37
sS'interdict'
p4224
I55
sS'set-up'
p4225
I14
sS'10'
p4226
I47
sS'13'
p4227
I14
sS'12'
p4228
I15
sS'15'
p4229
I33
sS'14'
p4230
I13
sS'17'
p4231
I15
sS'16'
p4232
I16
sS'19'
p4233
I8
sS'18'
p4234
I11
sS'map-bas'
p4235
I2
sS'spatially-distribut'
p4236
I3
sS'minimum-cost'
p4237
I11
sS'path-bas'
p4238
I10
sS'surrog'
p4239
I23
sS'tractor'
p4240
I1
sS'less-than-truckload'
p4241
I4
sS'hypergam'
p4242
I4
sS'durable-good'
p4243
I2
sS'cavit'
p4244
I5
sS'squar'
p4245
I72
sS'advic'
p4246
I11
sS'consortium'
p4247
I1
sS'multiple-object'
p4248
I4
sS'squad'
p4249
I1
sS'advis'
p4250
I9
sS'interior'
p4251
I33
sS'modulus'
p4252
I3
sS'channel'
p4253
I275
sS'incoher'
p4254
I2
sS'200'
p4255
I13
sS'evidence-bas'
p4256
I5
sS'pain'
p4257
I7
sS'reloc'
p4258
I33
sS'trace'
p4259
I31
sS'roster'
p4260
I19
sS'track'
p4261
I127
sS'paid'
p4262
I42
sS'plagu'
p4263
I7
sS'beta'
p4264
I4
sS'pair'
p4265
I120
sS'normat'
p4266
I24
sS'in-situ'
p4267
I10
sS'multi-product'
p4268
I33
sS'grassland'
p4269
I3
sS'shop'
p4270
I69
sS'shot'
p4271
I18
sS'reef'
p4272
I3
sS'show'
p4273
I2194
sS'rhetor'
p4274
I7
sS'prize-collect'
p4275
I6
sS'therapist'
p4276
I4
sS'shoe'
p4277
I5
sS'threshold'
p4278
I147
sS'corner'
p4279
I2
sS'forecast'
p4280
I543
sS'warpag'
p4281
I2
sS'contemporari'
p4282
I6
sS'resurfac'
p4283
I4
sS'fenc'
p4284
I3
sS'policy-mak'
p4285
I4
sS'apriori'
p4286
I3
sS'pump'
p4287
I16
sS'parametr'
p4288
I64
sS'black'
p4289
I5
sS'max-min'
p4290
I1
sS'fundrais'
p4291
I5
sS'get'
p4292
I124
sS'kinemat'
p4293
I3
sS'infinite-dimension'
p4294
I4
sS'contractu'
p4295
I37
sS'secondari'
p4296
I75
sS'irradi'
p4297
I5
sS'median'
p4298
I22
sS'mean-revert'
p4299
I8
sS'yield'
p4300
I278
sS'mediat'
p4301
I27
sS'anisotrop'
p4302
I2
sS'summari'
p4303
I11
sS'wiki'
p4304
I2
sS'kernel'
p4305
I38
sS'autocorrel'
p4306
I13
sS'zigzag'
p4307
I4
sS'assumpt'
p4308
I290
sS'seat'
p4309
I52
sS'honesti'
p4310
I2
sS'stigma'
p4311
I5
sS'wonder'
p4312
I2
sS'infinit'
p4313
I106
sS'cost-benefit'
p4314
I9
sS'innov'
p4315
I473
sS'enumer'
p4316
I32
sS'label'
p4317
I59
sS'enough'
p4318
I56
sS'volatil'
p4319
I138
sS'across'
p4320
I383
sS'parent'
p4321
I6
sS'spring'
p4322
I4
sS'tacit'
p4323
I6
sS'legitimaci'
p4324
I6
sS'compensatori'
p4325
I2
sS'trader'
p4326
I30
sS'audienc'
p4327
I49
sS'gain-shar'
p4328
I2
sS'tout'
p4329
I6
sS'fork-join'
p4330
I2
sS'improv'
p4331
I1254
sS'right-hand-sid'
p4332
I4
sS'among'
p4333
I506
sS'acceler'
p4334
I88
sS'variance-bas'
p4335
I1
sS'cancer'
p4336
I162
sS'disciplinari'
p4337
I3
sS'nurtur'
p4338
I2
sS'cancel'
p4339
I54
sS'ultim'
p4340
I27
sS'stock-out'
p4341
I16
sS'suicid'
p4342
I4
sS'mark'
p4343
I27
sS'co-produc'
p4344
I3
sS'workshop'
p4345
I11
sS'certifi'
p4346
I7
sS'metaheurist'
p4347
I54
sS'gripper'
p4348
I2
sS'suscept'
p4349
I14
sS'wake'
p4350
I5
sS'bayesian'
p4351
I1
sS'repres'
p4352
I349
sS'sound'
p4353
I11
sS'cross-funct'
p4354
I4
sS'interoper'
p4355
I7
sS'nonstationari'
p4356
I18
sS'macro-level'
p4357
I4
sS'recaptur'
p4358
I4
sS'invok'
p4359
I10
sS'ratchet'
p4360
I2
sS'outcom'
p4361
I387
sS'tranship'
p4362
I5
sS'invoc'
p4363
I4
sS'margin'
p4364
I164
sS'multi-depot'
p4365
I6
sS'planar'
p4366
I17
sS'counter-intuit'
p4367
I7
sS'advantag'
p4368
I201
sS'strait'
p4369
I1
sS'destin'
p4370
I78
sS'cluster'
p4371
I248
sS'sudden'
p4372
I11
sS'socio-econom'
p4373
I6
sS'protein'
p4374
I37
sS'zonal'
p4375
I5
sS'everyday'
p4376
I5
sS'par'
p4377
I1
sS'doctor'
p4378
I26
sS'pay'
p4379
I102
sS'consensus-bas'
p4380
I3
sS'pad'
p4381
I5
sS'capacity-constrain'
p4382
I6
sS'exhaust'
p4383
I15
sS'oil'
p4384
I56
sS'assist'
p4385
I88
sS'companion'
p4386
I2
sS'capabl'
p4387
I380
sS'surrogate-bas'
p4388
I3
sS'facet-defin'
p4389
I26
sS'postpon'
p4390
I35
sS'third-parti'
p4391
I24
sS'solvabl'
p4392
I44
sS'retransmiss'
p4393
I3
sS'appropri'
p4394
I164
sS'macro'
p4395
I15
sS'markup'
p4396
I8
sS'self-learn'
p4397
I1
sS'off-hour'
p4398
I2
sS'inter-organiz'
p4399
I2
sS'workplac'
p4400
I8
sS'monet'
p4401
I2
sS'execut'
p4402
I141
sS'money'
p4403
I29
sS'multiplex'
p4404
I1
sS'aspect'
p4405
I199
sS'flavor'
p4406
I5
sS'asthma'
p4407
I3
sS'rental'
p4408
I38
sS'4'
I57
sS'non-stationar'
p4409
I3
sS'black-box'
p4410
I9
sS'interrelationship'
p4411
I5
sS'next-gener'
p4412
I3
sS'temperatur'
p4413
I18
sS'grid'
p4414
I142
sS'custodi'
p4415
I2
sS'railroad'
p4416
I72
sS'voluntarili'
p4417
I5
sS'server'
p4418
I288
sS'p-dispers'
p4419
I2
sS'either'
p4420
I236
sS'quantal'
p4421
I5
sS'fulfil'
p4422
I50
sS'cabl'
p4423
I2
sS'cost-reduct'
p4424
I3
sS'biomateri'
p4425
I1
sS'ascend'
p4426
I14
sS'simplici'
p4427
I2
sS'l'
I1
sS'adequ'
p4428
I33
sS'reliability-bas'
p4429
I2
sS'ascent'
p4430
I2
sS'extinct'
p4431
I4
sS'gross'
p4432
I8
sS'confirm'
p4433
I42
sS'recomput'
p4434
I3
sS'pioneer'
p4435
I19
sS'inject'
p4436
I18
sS'equipag'
p4437
I3
sS'timeseri'
p4438
I2
sS'broker'
p4439
I15
sS'non-neglig'
p4440
I6
sS'broken'
p4441
I4
sS'costbenefit'
p4442
I2
sS'referr'
p4443
I18
sS'cornerston'
p4444
I4
sS'cross-valid'
p4445
I3
sS'mixex'
p4446
I3
sS'contagion'
p4447
I26
sS'island'
p4448
I3
sS'insect'
p4449
I2
sS'time-to-market'
p4450
I3
sS'fallaci'
p4451
I2
sS'in-control'
p4452
I2
sS'allianc'
p4453
I59
sS'road'
p4454
I120
sS'coupon'
p4455
I12
sS'terminolog'
p4456
I3
sS'short-run'
p4457
I6
sS'self-assembl'
p4458
I2
sS'strip'
p4459
I5
sS'non-pric'
p4460
I4
sS'spline'
p4461
I16
sS'complianc'
p4462
I38
sS'risk-adjust'
p4463
I6
sS'phasor'
p4464
I2
sS'compliant'
p4465
I3
sS'copulas-bas'
p4466
I1
sS'mid-siz'
p4467
I1
sS'rulemak'
p4468
I3
sS'high-frequ'
p4469
I3
sS'inter-period'
p4470
I2
sS'possibl'
p4471
I485
sS'homotopi'
p4472
I1
sS'unusu'
p4473
I7
sS'curvatur'
p4474
I21
sS'embed'
p4475
I83
sS'deadlock'
p4476
I1
sS'waiting-tim'
p4477
I2
sS'censor'
p4478
I43
sS'deep'
p4479
I13
sS'general'
p4480
I1013
sS'deem'
p4481
I2
sS'file'
p4482
I39
sS'generat'
p4483
I1060
sS'proport'
p4484
I97
sS'film'
p4485
I7
sS'fill'
p4486
I35
sS'selfish'
p4487
I15
sS'30000'
p4488
I4
sS'non-preempt'
p4489
I7
sS'personnel'
p4490
I43
sS'hybrid'
p4491
I159
sS'workday'
p4492
I3
sS'field'
p4493
I262
sS'binomi'
p4494
I19
sS'on-hand'
p4495
I3
sS'architectur'
p4496
I140
sS'condens'
p4497
I1
sS'shelter'
p4498
I27
sS'sequenc'
p4499
I321
sS'vertex'
p4500
I26
sS'prudent'
p4501
I1
sS'concav'
p4502
I58
sS'escal'
p4503
I9
sS'unload'
p4504
I14
sS'readership'
p4505
I3
sS'descript'
p4506
I86
sS'multi-attribut'
p4507
I20
sS'u'
I2
sS'escap'
p4508
I7
sS'life-cycl'
p4509
I18
sS'oral'
p4510
I9
sS'represent'
p4511
I176
sS'forget'
p4512
I6
sS'founder'
p4513
I5
sS'diesel'
p4514
I3
sS'forbidden'
p4515
I3
sS'dollar'
p4516
I27
sS'firmsdecis'
p4517
I4
sS'sunk'
p4518
I3
sS'semest'
p4519
I7
sS'children'
p4520
I23
sS'cross-sect'
p4521
I15
sS'welfare-maxim'
p4522
I2
sS'bestsel'
p4523
I1
sS'data-driven'
p4524
I46
sS'premium'
p4525
I44
sS'parcel'
p4526
I7
sS'straightforward'
p4527
I11
sS'fals'
p4528
I21
sS'offlin'
p4529
I26
sS'util'
p4530
I784
sS'fall'
p4531
I28
sS'bottleneck'
p4532
I54
sS'pre-specifi'
p4533
I18
sS'hinterland'
p4534
I4
sS'dampen'
p4535
I5
sS'firefight'
p4536
I9
sS'apprais'
p4537
I9
sS'neighborhood'
p4538
I64
sS'andor'
p4539
I96
sS'in-stock'
p4540
I2
sS'short-haul'
p4541
I4
sS'decision-theoret'
p4542
I2
sS'zero'
p4543
I41
sS'flow-shop'
p4544
I1
sS'excit'
p4545
I17
sS'in-process'
p4546
I3
sS'warm-start'
p4547
I4
sS'cognit'
p4548
I44
sS'abl'
p4549
I146
sS'hurdl'
p4550
I8
sS'public'
p4551
I314
sS'unlabel'
p4552
I5
sS'movement'
p4553
I100
sS'5000'
p4554
I4
sS'malaria'
p4555
I7
sS'variat'
p4556
I271
sS'sophist'
p4557
I32
sS'valv'
p4558
I3
sS'valu'
p4559
I1358
sS'search'
p4560
I545
sS'non-addit'
p4561
I2
sS'collater'
p4562
I12
sS'ore-grad'
p4563
I1
sS'airport'
p4564
I183
sS'probit'
p4565
I5
sS'narrow'
p4566
I19
sS'one-switch'
p4567
I2
sS'declin'
p4568
I31
sS'curat'
p4569
I3
sS'primit'
p4570
I13
sS'transit'
p4571
I206
sS'readili'
p4572
I15
sS'inappropri'
p4573
I4
sS'sanction'
p4574
I2
sS'establish'
p4575
I324
sS'eye'
p4576
I12
sS'medium-'
p4577
I3
sS'distinct'
p4578
I98
sS'liber'
p4579
I18
sS'regist'
p4580
I8
sS'two'
p4581
I1514
sS'codifi'
p4582
I3
sS'expedia'
p4583
I1
sS'desir'
p4584
I162
sS'e-servic'
p4585
I4
sS'reconfigur'
p4586
I14
sS'entrop'
p4587
I2
sS'expedit'
p4588
I31
sS'particular'
p4589
I430
sS'neurosci'
p4590
I4
sS'town'
p4591
I4
sS'dictat'
p4592
I7
sS'none'
p4593
I16
sS'hour'
p4594
I69
sS'hous'
p4595
I46
sS'remain'
p4596
I175
sS'abandon'
p4597
I81
sS'instantan'
p4598
I16
sS'explod'
p4599
I6
sS'ambient'
p4600
I7
sS'emiss'
p4601
I209
sS'cation'
p4602
I2
sS'sphere'
p4603
I13
sS'context-depend'
p4604
I3
sS'compart'
p4605
I4
sS'attain'
p4606
I35
sS'explor'
p4607
I707
sS'explos'
p4608
I22
sS'sharp'
p4609
I21
sS'extrins'
p4610
I2
sS'bat'
p4611
I5
sS'secur'
p4612
I269
sS'programmat'
p4613
I5
sS'comfort'
p4614
I6
sS'second-best'
p4615
I2
sS'narrowli'
p4616
I3
sS'mean-safety-first'
p4617
I2
sS'needi'
p4618
I4
sS'open-end'
p4619
I2
sS'needl'
p4620
I5
sS'regener'
p4621
I15
sS'faculti'
p4622
I42
sS'soda'
p4623
I1
sS'human-to-human'
p4624
I1
sS'inflationari'
p4625
I2
sS'associ'
p4626
I437
sS'waysid'
p4627
I2
sS'lookahead'
p4628
I4
sS'fixed-point'
p4629
I3
sS'coal'
p4630
I24
sS'co-exist'
p4631
I2
sS'spheric'
p4632
I6
sS'ensembl'
p4633
I20
sS'trough'
p4634
I1
sS'preposit'
p4635
I8
sS'infant'
p4636
I6
sS'rotat'
p4637
I19
sS'merit'
p4638
I26
sS'intermediari'
p4639
I41
sS'unimod'
p4640
I10
sS'radar'
p4641
I10
sS'tree-bas'
p4642
I5
sS'suffer'
p4643
I52
sS'rotam'
p4644
I3
sS'24'
p4645
I9
sS'25'
p4646
I34
sS'26'
p4647
I4
sS'27'
p4648
I8
sS'20'
p4649
I50
sS'21'
p4650
I9
sS'22'
p4651
I5
sS'23'
p4652
I8
sS'28'
p4653
I1
sS'29'
p4654
I4
sS'late'
p4655
I46
sS'pend'
p4656
I3
sS'speech'
p4657
I3
sS'pool-bas'
p4658
I3
sS'good'
p4659
I432
sS'pollut'
p4660
I31
sS'detour'
p4661
I5
sS'robustifi'
p4662
I3
sS'compound'
p4663
I23
sS'nonrecur'
p4664
I3
sS'adventur'
p4665
I1
sS'matheurist'
p4666
I3
sS'e-market'
p4667
I2
sS'stackelberg'
p4668
I1
sS'pregnanc'
p4669
I3
sS'micro'
p4670
I8
sS'treatment-experienc'
p4671
I2
sS'reminisc'
p4672
I3
sS'subsystem'
p4673
I20
sS'harm'
p4674
I15
sS'interleav'
p4675
I2
sS'mental'
p4676
I24
sS'unequ'
p4677
I9
sS'timelin'
p4678
I4
sS'idea'
p4679
I200
sS'fractur'
p4680
I1
sS'load-balanc'
p4681
I3
sS'connect'
p4682
I270
sS'buyer-sid'
p4683
I3
sS'energi'
p4684
I526
sS'orient'
p4685
I39
sS'creditor'
p4686
I8
sS'admiss'
p4687
I64
sS'seaport'
p4688
I4
sS'print'
p4689
I16
sS'non-uniform'
p4690
I4
sS'difficulti'
p4691
I84
sS'hydrodynam'
p4692
I3
sS'suspici'
p4693
I5
sS'backer'
p4694
I3
sS'signal'
p4695
I251
sS'intric'
p4696
I5
sS'multi-serv'
p4697
I23
sS'workstat'
p4698
I7
sS'heavy-traff'
p4699
I28
sS'omit'
p4700
I4
sS'perman'
p4701
I7
sS'contra-flow'
p4702
I1
sS'state-spac'
p4703
I9
sS'dont'
p4704
I12
sS'perturb'
p4705
I39
sS'exchang'
p4706
I166
sS'k-core'
p4707
I5
sS'dissatisfi'
p4708
I3
sS'liquefact'
p4709
I2
sS'done'
p4710
I84
sS'stabl'
p4711
I86
sS'downsid'
p4712
I17
sS'unrestrict'
p4713
I5
sS'least'
p4714
I144
sS'paint'
p4715
I3
sS'statement'
p4716
I15
sS'warfight'
p4717
I5
sS'compartment'
p4718
I7
sS'telehealth'
p4719
I2
sS'park'
p4720
I39
sS'powertrain'
p4721
I2
sS'part'
p4722
I329
sS'sold'
p4723
I52
sS'exposur'
p4724
I45
sS'b'
I36
sS'contrari'
p4725
I16
sS'cyclic'
p4726
I29
sS'gotten'
p4727
I2
sS'satisf'
p4728
I6
sS'horizont'
p4729
I27
sS'youth'
p4730
I5
sS'2020'
p4731
I6
sS'peaker'
p4732
I4
sS'fixat'
p4733
I1
sS'non-contigu'
p4734
I2
sS'time-cours'
p4735
I2
sS'actuari'
p4736
I4
sS'built'
p4737
I79
sS'valueof'
p4738
I2
sS'price-respons'
p4739
I6
sS'onset'
p4740
I11
sS'endogen'
p4741
I80
sS'build'
p4742
I338
sS'distribut'
p4743
I1431
sS'time-inhomogen'
p4744
I2
sS'interior-point'
p4745
I35
sS'chart'
p4746
I128
sS'most'
p4747
I21
sS'prolifer'
p4748
I14
sS'high-volum'
p4749
I7
sS'non-smooth'
p4750
I7
sS'post-purchas'
p4751
I4
sS'charg'
p4752
I169
sS'kg'
p4753
I2
sS'market-bas'
p4754
I13
sS'km'
p4755
I4
sS'unexplor'
p4756
I5
sS'weigh'
p4757
I12
sS'scholarship'
p4758
I6
sS'clinician'
p4759
I15
sS'sector'
p4760
I158
sS'commerc'
p4761
I16
sS'multicriteria'
p4762
I18
sS'fine'
p4763
I7
sS'find'
p4764
I1351
sS'multichannel'
p4765
I8
sS'data-integr'
p4766
I2
sS'giant'
p4767
I2
sS'merger'
p4768
I10
sS'ruin'
p4769
I5
sS'box-constrain'
p4770
I1
sS'sales-rank'
p4771
I4
sS'8'
I11
sS'min-max'
p4772
I8
sS'weve'
p4773
I4
sS'unus'
p4774
I7
sS'express'
p4775
I156
sS'epidem'
p4776
I50
sS'cheaper'
p4777
I13
sS'line-of-sight'
p4778
I1
sS'pay-for-perform'
p4779
I2
sS'batter'
p4780
I5
sS'breast'
p4781
I42
sS'theft'
p4782
I6
sS'pellet'
p4783
I7
sS'restart'
p4784
I12
sS'silo'
p4785
I5
sS'builder'
p4786
I3
sS'over-demand'
p4787
I2
sS'common'
p4788
I415
sS'exchange-r'
p4789
I2
sS'commod'
p4790
I121
sS'decompos'
p4791
I80
sS'tender'
p4792
I8
sS'reserv'
p4793
I176
sS'hole'
p4794
I5
sS'retweet'
p4795
I8
sS'expert'
p4796
I131
sS'misalign'
p4797
I14
sS'someth'
p4798
I9
sS'debat'
p4799
I35
sS'smallest'
p4800
I8
sS'myriad'
p4801
I5
sS'vascular'
p4802
I4
sS'subscript'
p4803
I22
sS'experi'
p4804
I923
sS'meal'
p4805
I11
sS'altern'
p4806
I552
sS'appreci'
p4807
I15
sS'complement'
p4808
I48
sS'age-bas'
p4809
I3
sS'convex-hul'
p4810
I3
sS'aircraft'
p4811
I215
sS'complementari'
p4812
I68
sS'popul'
p4813
I228
sS'product-specif'
p4814
I2
sS'worst-cas'
p4815
I78
sS'annual'
p4816
I75
sS'alon'
p4817
I32
sS'venu'
p4818
I10
sS'tempor'
p4819
I87
sS'simpli'
p4820
I24
sS'price-'
p4821
I2
sS'point'
p4822
I544
sS'instanti'
p4823
I3
sS'newborn'
p4824
I1
sS'fixed-charg'
p4825
I16
sS'shutdown'
p4826
I5
sS'suppli'
p4827
I1543
sS'throughout'
p4828
I60
sS'instrument'
p4829
I63
sS'secret'
p4830
I4
sS'screener'
p4831
I4
sS'nanostructur'
p4832
I11
sS'gas'
p4833
I136
sS'high-valu'
p4834
I8
sS'gap'
p4835
I135
sS'understand'
p4836
I360
sS'repetit'
p4837
I8
sS'lower-bound'
p4838
I4
sS'politician'
p4839
I3
sS'survivor'
p4840
I5
sS'solid'
p4841
I9
sS'bill'
p4842
I12
sS'inferenti'
p4843
I1
sS'litig'
p4844
I1
sS'unifi'
p4845
I61
sS'anonym'
p4846
I12
sS'everyon'
p4847
I1
sS'propag'
p4848
I94
sS'vacat'
p4849
I7
sS'echelon'
p4850
I27
sS'centuri'
p4851
I12
sS'buy-in'
p4852
I3
sS'wherein'
p4853
I12
sS'benign'
p4854
I4
sS'corridor'
p4855
I46
sS'codeshar'
p4856
I8
sS'self-servic'
p4857
I4
sS'lead-lag'
p4858
I1
sS'neutron'
p4859
I2
sS'bio-med'
p4860
I2
sS'moment'
p4861
I59
sS'recreat'
p4862
I3
sS'travers'
p4863
I15
sS'task'
p4864
I315
sS'ampl'
p4865
I4
sS'entri'
p4866
I74
sS'chemistri'
p4867
I4
sS'spent'
p4868
I16
sS'withdraw'
p4869
I13
sS'quality-of-lif'
p4870
I3
sS'landmark'
p4871
I3
sS'tast'
p4872
I12
sS'spend'
p4873
I62
sS'explan'
p4874
I35
sS'one-year'
p4875
I3
sS'1960'
p4876
I8
sS're-enrol'
p4877
I2
sS'obscur'
p4878
I5
sS'superimpos'
p4879
I2
sS'shape'
p4880
I114
sS'osteoarthr'
p4881
I2
sS'timber'
p4882
I3
sS'depriv'
p4883
I3
sS'impetus'
p4884
I2
sS'cut'
p4885
I327
sS'cue'
p4886
I3
sS'punter'
p4887
I4
sS'win'
p4888
I58
sS'conceiv'
p4889
I7
sS'persuas'
p4890
I2
sS'cluster-bas'
p4891
I2
sS'approxim'
p4892
I934
sS'bin'
p4893
I10
sS'big'
p4894
I42
sS'bid'
p4895
I334
sS'strategy-proof'
p4896
I7
sS'predictor-corrector'
p4897
I3
sS'redeem'
p4898
I3
sS'feature-limit'
p4899
I2
sS'bit'
p4900
I4
sS'tier-1'
p4901
I5
sS'meta-optim'
p4902
I8
sS'extravers'
p4903
I4
sS'flux'
p4904
I5
sS'princip'
p4905
I36
sS'linearization-bas'
p4906
I5
sS'widely-us'
p4907
I5
sS'love'
p4908
I5
sS'scrip'
p4909
I6
sS'often'
p4910
I511
sS'upper-lay'
p4911
I3
sS'back'
p4912
I56
sS'inter-arriv'
p4913
I9
sS'extremist'
p4914
I1
sS'strongest'
p4915
I4
sS'ride-shar'
p4916
I3
sS'mirror'
p4917
I10
sS'cyber-attack'
p4918
I4
sS'insepar'
p4919
I2
sS'beam-on'
p4920
I4
sS'scale'
p4921
I292
sS'pet'
p4922
I1
sS'per'
p4923
I114
sS'principal-ag'
p4924
I14
sS'substitut'
p4925
I174
sS'mathemat'
p4926
I348
sS'larg'
p4927
I864
sS'cloud'
p4928
I44
sS'reproduc'
p4929
I12
sS'patient'
p4930
I1025
sS'productionoutsourc'
p4931
I2
sS'300'
p4932
I9
sS'use'
p4933
I5899
sS'patienc'
p4934
I21
sS'servit'
p4935
I6
sS'metaphor'
p4936
I6
sS'biomark'
p4937
I12
sS'impos'
p4938
I88
sS'shrinkag'
p4939
I17
sS'elucid'
p4940
I5
sS'constraint'
p4941
I1077
sS'preclud'
p4942
I4
sS'time-expand'
p4943
I6
sS'disclosur'
p4944
I31
sS'pertin'
p4945
I10
sS'bufferless'
p4946
I3
sS'predat'
p4947
I1
sS'one-tim'
p4948
I8
sS'dispens'
p4949
I25
sS'high-qual'
p4950
I30
sS'bankruptci'
p4951
I28
sS'lesson'
p4952
I58
sS'click'
p4953
I22
sS'inclus'
p4954
I18
sS'data-min'
p4955
I9
sS'agricultur'
p4956
I31
sS'includ'
p4957
I1071
sS'forward'
p4958
I118
sS'reorgan'
p4959
I6
sS'subsidiari'
p4960
I3
sS'v2006'
p4961
I2
sS'two-part'
p4962
I10
sS'translat'
p4963
I40
sS'finite-sampl'
p4964
I4
sS'saddle-point'
p4965
I3
sS'planet'
p4966
I2
sS'adequaci'
p4967
I5
sS'l1-regular'
p4968
I1
sS'curv'
p4969
I103
sS'groundwat'
p4970
I2
sS'constant'
p4971
I108
sS'make-to-ord'
p4972
I26
sS'metal'
p4973
I14
sS'cure'
p4974
I7
sS'curb'
p4975
I3
sS'run-length'
p4976
I2
sS'simulation-bas'
p4977
I48
sS'prevail'
p4978
I12
sS'sequenti'
p4979
I233
sS'mixed-integ'
p4980
I152
sS'priori'
p4981
I41
sS'construal'
p4982
I1
sS'asymmetr'
p4983
I84
sS'lend'
p4984
I36
sS'mismatch'
p4985
I28
sS'after-tax'
p4986
I3
sS'prepared'
p4987
I28
sS'cater'
p4988
I3
sS'glpk'
p4989
I2
sS'deserv'
p4990
I4
sS'fixed-queue-ratio'
p4991
I1
sS'2002'
p4992
I19
sS'2003'
p4993
I19
sS'2000'
p4994
I32
sS'2001'
p4995
I19
sS'2006'
p4996
I70
sS'2007'
p4997
I60
sS'2004'
p4998
I37
sS'2005'
p4999
I36
sS'2008'
p5000
I38
sS'2009'
p5001
I14
sS'credenc'
p5002
I2
sS'queri'
p5003
I36
sS'privat'
p5004
I195
sS'clickstream'
p5005
I4
sS'cross-sel'
p5006
I6
sS'sensit'
p5007
I257
sS'polyhedr'
p5008
I57
sS'elsewher'
p5009
I4
sS'conspicu'
p5010
I2
sS'granular'
p5011
I5
sS'becam'
p5012
I15
sS'leadtim'
p5013
I46
sS'fatal'
p5014
I12
sS'single-loc'
p5015
I3
sS'passiv'
p5016
I6
sS'assay'
p5017
I3
sS'disclos'
p5018
I17
sS'mous'
p5019
I3
sS'subscription-bas'
p5020
I3
sS'volum'
p5021
I153
sS'multi-load'
p5022
I2
sS'surgeon'
p5023
I26
sS'orthant'
p5024
I7
sS'steady-st'
p5025
I38
sS'umpir'
p5026
I5
sS'notabl'
p5027
I13
sS'shock'
p5028
I51
sS'geograph'
p5029
I95
sS'busier'
p5030
I3
sS'self-financ'
p5031
I3
sS'headquart'
p5032
I6
sS'what-if'
p5033
I5
sS'fortun'
p5034
I2
sS'ethnograph'
p5035
I5
sS'antigen'
p5036
I6
sS'crop'
p5037
I10
sS'synergist'
p5038
I3
sS'leakag'
p5039
I22
sS'accomod'
p5040
I4
sS'set-bas'
p5041
I2
sS'classification-bas'
p5042
I1
sS'budget-constrain'
p5043
I8
sS'resembl'
p5044
I12
sS'multi-modul'
p5045
I2
sS'access'
p5046
I245
sS'microprocessor'
p5047
I5
sS'multiperiod'
p5048
I16
sS'impuls'
p5049
I12
sS'deduc'
p5050
I7
sS'ration'
p5051
I168
sS'closur'
p5052
I28
sS'intercept'
p5053
I8
sS'sink'
p5054
I16
sS'tenur'
p5055
I5
sS'safer'
p5056
I4
sS'vertic'
p5057
I84
sS'implicit'
p5058
I36
sS'mindset'
p5059
I1
sS'remark'
p5060
I21
sS'38'
p5061
I4
sS'talent'
p5062
I11
sS'33'
p5063
I4
sS'32'
p5064
I6
sS'31'
p5065
I2
sS'30'
p5066
I45
sS'36'
p5067
I6
sS'35'
p5068
I13
sS'34'
p5069
I4
sS'weekday'
p5070
I3
sS'implement'
p5071
I762
sS'honor'
p5072
I6
sS'e-commerc'
p5073
I21
sS'foundat'
p5074
I46
sS'egress'
p5075
I5
sS'patrol'
p5076
I21
sS'ah'
p5077
I1
sS'gateway'
p5078
I6
sS'multi-fidel'
p5079
I2
sS'breakup'
p5080
I1
sS'data-rich'
p5081
I4
sS'seamless'
p5082
I14
sS'websit'
p5083
I59
sS'advoc'
p5084
I11
sS'imprecis'
p5085
I6
sS'look-ahead'
p5086
I7
sS'one-dimension'
p5087
I18
sS'close-to-optim'
p5088
I2
sS'trait'
p5089
I8
sS'iid'
p5090
I15
sS'proton'
p5091
I7
sS'transient'
p5092
I37
sS'harvest'
p5093
I61
sS'tentat'
p5094
I3
sS'account'
p5095
I434
sS'alik'
p5096
I7
sS'scalabl'
p5097
I54
sS'tunnel'
p5098
I4
sS's-shape'
p5099
I1
sS'obvious'
p5100
I5
sS'fetch'
p5101
I1
sS'employe'
p5102
I83
sS'contempl'
p5103
I3
sS'down-pay'
p5104
I2
sS'survey-bas'
p5105
I4
sS'high-'
p5106
I1
sS'onlin'
p5107
I467
sS'well-b'
p5108
I5
sS'everywher'
p5109
I4
sS'dualiz'
p5110
I5
sS'surfac'
p5111
I97
sS'forese'
p5112
I3
sS'time-to-ev'
p5113
I2
sS'lane-chang'
p5114
I2
sS'forest'
p5115
I91
sS'stoch'
p5116
I6
sS'stock'
p5117
I263
sS'chi-squar'
p5118
I2
sS'leukemia'
p5119
I2
sS'lift-and-project'
p5120
I4
sS'redund'
p5121
I22
sS'philosophi'
p5122
I10
sS'gono-go'
p5123
I2
sS'physic'
p5124
I129
sS're-manufactur'
p5125
I3
sS'bind'
p5126
I10
sS'nanomanufactur'
p5127
I12
sS'correspond'
p5128
I157
sS'chief'
p5129
I3
sS'furnish'
p5130
I2
sS'branch-and-pric'
p5131
I26
sS'meter'
p5132
I8
sS'metrolog'
p5133
I4
sS'bunch'
p5134
I4
sS'la'
p5135
I1
sS'labor'
p5136
I87
sS'willing'
p5137
I41
sS'lp'
p5138
I1
sS'preval'
p5139
I56
sS'junction'
p5140
I2
sS'greater'
p5141
I129
sS'dam'
p5142
I5
sS'mention'
p5143
I17
sS'single-resourc'
p5144
I3
sS'day'
p5145
I189
sS'strive'
p5146
I12
sS'shipbuild'
p5147
I1
sS'physics-bas'
p5148
I4
sS'two-period'
p5149
I29
sS'l1'
p5150
I1
sS'disregard'
p5151
I4
sS'quintil'
p5152
I3
sS'thwart'
p5153
I5
sS'intellig'
p5154
I92
sS'fluctuat'
p5155
I49
sS'flow-bas'
p5156
I5
sS'sexual'
p5157
I7
sS'disentangl'
p5158
I6
sS'defend'
p5159
I65
sS'defenc'
p5160
I1
sS'posteriori'
p5161
I3
sS'mate'
p5162
I2
sS'stuf'
p5163
I2
sS'nanowir'
p5164
I7
sS'defens'
p5165
I67
sS'red'
p5166
I6
sS'clarifi'
p5167
I17
sS'insid'
p5168
I15
sS'workflow'
p5169
I25
sS'frank'
p5170
I1
sS'active-set'
p5171
I13
sS'charit'
p5172
I2
sS'bilevel'
p5173
I59
sS'standalon'
p5174
I7
sS'invas'
p5175
I17
sS'likelihood'
p5176
I138
sS'afterward'
p5177
I5
sS'yard'
p5178
I56
sS'arbitrag'
p5179
I22
sS'index-bas'
p5180
I5
sS'vehicular'
p5181
I14
sS'multi-sit'
p5182
I3
sS'mortal'
p5183
I52
sS'time-inconsist'
p5184
I3
sS'retain'
p5185
I30
sS'retail'
p5186
I971
sS'attenu'
p5187
I2
sS'glucos'
p5188
I6
sS'facil'
p5189
I604
sS'messag'
p5190
I59
sS'biochem'
p5191
I2
sS'cabin'
p5192
I4
sS'theoriz'
p5193
I7
sS'non-ident'
p5194
I11
sS'open-book'
p5195
I2
sS'discretionari'
p5196
I5
sS'mission-crit'
p5197
I3
sS'transfus'
p5198
I10
sS'mammograph'
p5199
I4
sS'prune'
p5200
I14
sS'counteract'
p5201
I3
sS'embodi'
p5202
I3
sS'single-serv'
p5203
I11
sS'behavior-robust'
p5204
I1
sS'structur'
p5205
I1114
sS'charact'
p5206
I9
sS'fraudul'
p5207
I2
sS'thereaft'
p5208
I4
sS'learn-how'
p5209
I3
sS'immigr'
p5210
I6
sS'grid-level'
p5211
I5
sS'min'
p5212
I8
sS'customersservic'
p5213
I3
sS'two-compon'
p5214
I1
sS'pathwis'
p5215
I5
sS'mix'
p5216
I396
sS'unless'
p5217
I7
sS'preliminari'
p5218
I90
sS'mimick'
p5219
I3
sS'eight'
p5220
I16
sS'transcript'
p5221
I4
sS'payment'
p5222
I105
sS'gurus'
p5223
I5
sS'homogen'
p5224
I50
sS'root-find'
p5225
I4
sS'gather'
p5226
I43
sS'request'
p5227
I113
sS'proteom'
p5228
I3
sS'cyberinfrastructur'
p5229
I2
sS'high-throughput'
p5230
I4
sS'occasion'
p5231
I3
sS'metaconstraint'
p5232
I2
sS'failure-pron'
p5233
I1
sS'text'
p5234
I68
sS'freemium'
p5235
I4
sS'error-pron'
p5236
I2
sS'clearanc'
p5237
I29
sS'empir'
p5238
I440
sS'portfolio'
p5239
I480
sS'staff'
p5240
I77
sS'first-best'
p5241
I8
sS'bicycl'
p5242
I8
sS'prolong'
p5243
I8
sS'inferior'
p5244
I11
sS'equilibrium'
p5245
I597
sS'beat'
p5246
I8
sS'disagre'
p5247
I2
sS'regimen'
p5248
I6
sS'pave'
p5249
I3
sS'beam'
p5250
I39
sS'increas'
p5251
I1051
sS'reluct'
p5252
I7
sS'organ'
p5253
I420
sS'low-acu'
p5254
I3
sS'market-clear'
p5255
I2
sS'integr'
p5256
I856
sS'electroencephalograph'
p5257
I2
sS'upper-level'
p5258
I11
sS'conform'
p5259
I32
sS'heuristic-bas'
p5260
I5
sS'malfunct'
p5261
I5
sS'city-product'
p5262
I2
sS'wetland'
p5263
I4
sS'interceptor'
p5264
I1
sS'k-club'
p5265
I12
sS'landfal'
p5266
I7
sS'diversif'
p5267
I43
sS'reform'
p5268
I16
sS'pattern'
p5269
I333
sS'boundari'
p5270
I93
sS'segment'
p5271
I179
sS'bidder-specif'
p5272
I3
sS'progress'
p5273
I133
sS'corros'
p5274
I1
sS'patholog'
p5275
I4
sS'supplydemand'
p5276
I2
sS'hypergraph'
p5277
I15
sS'instant'
p5278
I11
sS'plugin'
p5279
I3
sS'equal'
p5280
I101
sS'instanc'
p5281
I308
sS'equat'
p5282
I130
sS'swim'
p5283
I1
sS'freeli'
p5284
I11
sS'k-hurdl'
p5285
I5
sS'comment'
p5286
I24
sS'guidelin'
p5287
I78
sS'non-homogen'
p5288
I8
sS'attende'
p5289
I4
sS'duopolist'
p5290
I8
sS'anomali'
p5291
I26
sS'electr'
p5292
I412
sS'curtail'
p5293
I11
sS'upcom'
p5294
I7
sS'inapproxim'
p5295
I6
sS'bulk'
p5296
I16
sS'casualti'
p5297
I24
sS'fellow'
p5298
I2
sS'arisen'
p5299
I3
sS'determinist'
p5300
I220
sS'multi'
p5301
I14
sS'nd'
p5302
I3
sS'rectangular'
p5303
I13
sS'defin'
p5304
I345
sS'howev'
p5305
I136
sS'simulation-optim'
p5306
I19
sS'chaotic'
p5307
I7
sS'blood'
p5308
I50
sS'bio-fuel'
p5309
I3
sS'substanti'
p5310
I108
sS'absente'
p5311
I8
sS'partner'
p5312
I84
sS'inspector'
p5313
I3
sS'portray'
p5314
I4
sS'comonoton'
p5315
I4
sS'non-recurr'
p5316
I2
sS'bi-criteria'
p5317
I13
sS'commodit'
p5318
I3
sS'infer'
p5319
I116
sS'airspac'
p5320
I34
sS'tighten'
p5321
I11
sS'cubic'
p5322
I7
sS'scenario-bas'
p5323
I19
sS'judgment'
p5324
I53
sS'tighter'
p5325
I17
sS'cosmet'
p5326
I2
sS'insurg'
p5327
I26
sS'center'
p5328
I354
sS'neural'
p5329
I26
sS'nevertheless'
p5330
I1
sS'weapon'
p5331
I35
sS'differential-algebra'
p5332
I2
sS'versatil'
p5333
I5
sS'data-set'
p5334
I6
sS'thought'
p5335
I31
sS'interpol'
p5336
I14
sS'latest'
p5337
I29
sS'wagner'
p5338
I1
sS'clinic'
p5339
I299
sS'interim'
p5340
I4
sS'abat'
p5341
I12
sS'shuttl'
p5342
I6
sS'handov'
p5343
I4
sS'systemat'
p5344
I126
sS'lake'
p5345
I2
sS'bench'
p5346
I3
sS'add'
p5347
I43
sS'citizen'
p5348
I9
sS'smart'
p5349
I41
sS'punctual'
p5350
I4
sS'immens'
p5351
I3
sS'punctuat'
p5352
I5
sS'testb'
p5353
I4
sS'resultssubstanti'
p5354
I2
sS'realis'
p5355
I1
sS'cost-minim'
p5356
I7
sS'insert'
p5357
I8
sS'anti-vir'
p5358
I5
sS'backbon'
p5359
I15
sS'success'
p5360
I410
sS'spoilag'
p5361
I2
sS'soft'
p5362
I19
sS'propel'
p5363
I2
sS'branch-and-bound'
p5364
I69
sS'convey'
p5365
I14
sS'convex'
p5366
I323
sS'proper'
p5367
I75
sS'buy-up'
p5368
I4
sS'origin-to-destin'
p5369
I3
sS'trap'
p5370
I4
sS'regain'
p5371
I3
sS'turn-round'
p5372
I3
sS'slight'
p5373
I17
sS'noisi'
p5374
I41
sS'host'
p5375
I38
sS'simplex'
p5376
I39
sS'although'
p5377
I29
sS'riskless'
p5378
I5
sS'simpler'
p5379
I26
sS'actual'
p5380
I218
sS'justic'
p5381
I8
sS'justif'
p5382
I7
sS'lifecycl'
p5383
I13
sS'discard'
p5384
I11
sS'certainti'
p5385
I19
sS'actuat'
p5386
I1
sS'predictor'
p5387
I43
sS'dataset'
p5388
I149
sS'single-product'
p5389
I4
sS'chronic'
p5390
I45
sS'playoff'
p5391
I2
sS'doesnt'
p5392
I3
sS'interarriv'
p5393
I5
sS'leverag'
p5394
I96
sS'1987'
p5395
I2
sS'1984'
p5396
I3
sS'1985'
p5397
I4
sS'1982'
p5398
I2
sS'1983'
p5399
I2
sS'1980'
p5400
I5
sS'pictur'
p5401
I11
sS'1988'
p5402
I2
sS'1989'
p5403
I2
sS'multi-group'
p5404
I4
sS'biggest'
p5405
I7
sS'buy'
p5406
I140
sS'unexpect'
p5407
I26
sS'semi-supervis'
p5408
I3
sS'bus'
p5409
I35
sS'brand'
p5410
I93
sS'risk-fre'
p5411
I6
sS'bug'
p5412
I6
sS'real-lif'
p5413
I53
sS'wise'
p5414
I3
sS'wish'
p5415
I35
sS'j'
I4
sS'flip'
p5416
I3
sS'intransit'
p5417
I1
sS'immobil'
p5418
I4
sS'warmstart'
p5419
I5
sS'multi-pl'
p5420
I2
sS'auction-bas'
p5421
I5
sS'pig'
p5422
I3
sS'circul'
p5423
I6
sS'weather-rel'
p5424
I1
sS'pit'
p5425
I18
sS'campus'
p5426
I9
sS'probabl'
p5427
I645
sS'automot'
p5428
I47
sS'risk-factor'
p5429
I2
sS'47'
p5430
I5
sS'44'
p5431
I3
sS'45'
p5432
I6
sS'oak'
p5433
I4
sS'43'
p5434
I4
sS'40'
p5435
I27
sS'lot-siz'
p5436
I43
sS'semiparametr'
p5437
I3
sS'out'
p5438
I3
sS'semin'
p5439
I5
sS'nutrient'
p5440
I3
sS'seismic'
p5441
I5
sS'basketbal'
p5442
I7
sS'peptid'
p5443
I2
sS'yelp'
p5444
I3
sS'time-bas'
p5445
I10
sS'co-develop'
p5446
I5
sS'system-optim'
p5447
I5
sS'overconfid'
p5448
I8
sS'sleep'
p5449
I4
sS're-optim'
p5450
I12
sS'tweet'
p5451
I11
sS'10-30'
p5452
I1
sS'concret'
p5453
I20
sS'under'
p5454
I260
sS'testabl'
p5455
I3
sS'suburban'
p5456
I1
sS'merchant'
p5457
I12
sS'everi'
p5458
I117
sS'risk'
p5459
I1518
sS'frailti'
p5460
I3
sS'sub-area'
p5461
I6
sS'rise'
p5462
I49
sS'quantif'
p5463
I10
sS'quantiz'
p5464
I3
sS'upstream'
p5465
I48
sS'quantit'
p5466
I108
sS'real-valu'
p5467
I3
sS'school'
p5468
I92
sS'plural'
p5469
I4
sS'degeneraci'
p5470
I7
sS'verif'
p5471
I23
sS'cost-sav'
p5472
I3
sS'reimburs'
p5473
I26
sS'enjoy'
p5474
I16
sS'epistem'
p5475
I3
sS'batch-mean'
p5476
I4
sS'naiv'
p5477
I6
sS'direct'
p5478
I463
sS'street'
p5479
I12
sS'empow'
p5480
I5
sS'blue'
p5481
I1
sS'hide'
p5482
I19
sS'continuous-review'
p5483
I3
sS'worsen'
p5484
I11
sS'poison'
p5485
I1
sS'path-differenti'
p5486
I1
sS'conduct'
p5487
I297
sS'supplier'
p5488
I811
sS'abrupt'
p5489
I4
sS'symmetr'
p5490
I48
sS'asymmetri'
p5491
I50
sS'lodg'
p5492
I2
sS'hub-and-spok'
p5493
I10
sS'studio'
p5494
I3
sS'ethanol'
p5495
I14
sS'path'
p5496
I352
sS'inter-depend'
p5497
I4
sS'high-impact'
p5498
I7
sS'forum'
p5499
I12
sS'auction'
p5500
I634
sS'advertisersqu'
p5501
I3
sS'portabl'
p5502
I10
sS'precis'
p5503
I77
sS'mentor'
p5504
I12
sS'isomorph'
p5505
I5
sS'tremend'
p5506
I20
sS'bid-ask'
p5507
I1
sS'hyper-rectangl'
p5508
I2
sS'semi-definit'
p5509
I12
sS'close-form'
p5510
I1
sS'policyhold'
p5511
I1
sS'describ'
p5512
I922
sS'would'
p5513
I194
sS'cross-dock'
p5514
I8
sS'prescript'
p5515
I39
sS'intermediate-stag'
p5516
I1
sS'asset'
p5517
I212
sS'spike'
p5518
I4
sS'decentr'
p5519
I188
sS'preview'
p5520
I4
sS'price-mak'
p5521
I2
sS'phone'
p5522
I25
sS'feed-forward'
p5523
I2
sS'area-cel'
p5524
I3
sS'must'
p5525
I340
sS'double-track'
p5526
I3
sS'join'
p5527
I68
sS'multinomi'
p5528
I23
sS'cheapest'
p5529
I9
sS'telescop'
p5530
I3
sS'best-fit'
p5531
I2
sS'hypermarket'
p5532
I3
sS'multi-voxel'
p5533
I1
sS'make-whol'
p5534
I3
sS'multi-method'
p5535
I1
sS'taxiway'
p5536
I12
sS'product-process'
p5537
I3
sS'dengu'
p5538
I1
sS'attract'
p5539
I81
sS'cogener'
p5540
I4
sS'end'
p5541
I151
sS'stride'
p5542
I3
sS'finalist'
p5543
I41
sS'concis'
p5544
I5
sS'toxic'
p5545
I16
sS'gate'
p5546
I32
sS'widespread'
p5547
I19
sS'collaps'
p5548
I20
sS'multi-level'
p5549
I28
sS'poker'
p5550
I3
sS'lump'
p5551
I2
sS'mesh'
p5552
I4
sS'bin-pack'
p5553
I4
sS'parallel'
p5554
I226
sS'high-fidel'
p5555
I4
sS'bootstrap'
p5556
I15
sS'exclud'
p5557
I5
sS'loader'
p5558
I2
sS'patent'
p5559
I72
sS'environ'
p5560
I497
sS'incorpor'
p5561
I455
sS'enter'
p5562
I58
sS'exclus'
p5563
I27
sS'composit'
p5564
I65
sS'deform'
p5565
I6
sS'over'
p5566
I7
sS'oven'
p5567
I2
sS'cortic'
p5568
I2
sS'unpreced'
p5569
I13
sS'semi-autom'
p5570
I3
sS'comprehend'
p5571
I9
sS'complex'
p5572
I692
sS'fade'
p5573
I3
sS'400'
p5574
I8
sS'comprehens'
p5575
I94
sS'multidisciplinari'
p5576
I7
sS'tourist'
p5577
I5
sS'uncorrel'
p5578
I2
sS'non-trivi'
p5579
I11
sS'interdisciplinari'
p5580
I21
sS'tourism'
p5581
I17
sS'inter-st'
p5582
I2
sS'choic'
p5583
I585
sS'victori'
p5584
I2
sS'demand-suppli'
p5585
I6
sS'multi-knapsack'
p5586
I3
sS'undermin'
p5587
I2
sS'presolv'
p5588
I6
sS'prohibit'
p5589
I18
sS'matrix-fre'
p5590
I2
sS'pre-comput'
p5591
I1
sS'off-leas'
p5592
I1
sS'depress'
p5593
I11
sS'fraught'
p5594
I5
sS'goe'
p5595
I15
sS'newli'
p5596
I31
sS'got'
p5597
I4
sS'worthwhil'
p5598
I3
sS'free'
p5599
I91
sS'state-act'
p5600
I3
sS'puzzl'
p5601
I3
sS'substructur'
p5602
I9
sS'filter'
p5603
I86
sS'rais'
p5604
I65
sS'unknown'
p5605
I142
sS'toleranc'
p5606
I3
sS'onto'
p5607
I15
sS'fantasi'
p5608
I7
sS'rang'
p5609
I230
sS'rank'
p5610
I202
sS'necess'
p5611
I6
sS'restrict'
p5612
I152
sS'subcontractor'
p5613
I4
sS'alreadi'
p5614
I35
sS'primari'
p5615
I125
sS'glioma'
p5616
I2
sS'single-sourc'
p5617
I6
sS'mass-casualti'
p5618
I3
sS'toy'
p5619
I4
sS'top'
p5620
I42
sS'tow'
p5621
I4
sS'fiction'
p5622
I3
sS'downsiz'
p5623
I2
sS'ton'
p5624
I4
sS'salienc'
p5625
I1
sS'corpus'
p5626
I7
sS'urban'
p5627
I95
sS'consol'
p5628
I1
sS'car-follow'
p5629
I4
sS'tool'
p5630
I590
sS'took'
p5631
I12
sS'incur'
p5632
I94
sS'western'
p5633
I6
sS'conserv'
p5634
I41
sS'neurophysiolog'
p5635
I1
sS'pertussi'
p5636
I2
sS'1979'
p5637
I5
sS'learning-by-do'
p5638
I4
sS'1975'
p5639
I2
sS'latitud'
p5640
I2
sS'fashion'
p5641
I46
sS'ran'
p5642
I6
sS'hypothet'
p5643
I26
sS'raw'
p5644
I26
sS'ocean'
p5645
I9
sS'seminar'
p5646
I7
sS'support-tim'
p5647
I2
sS'1969'
p5648
I5
sS'unresolv'
p5649
I3
sS'1965'
p5650
I4
sS'electromechan'
p5651
I1
sS'-'
I168
sS'snow'
p5652
I2
sS'thorough'
p5653
I9
sS'client'
p5654
I106
sS'vice-versa'
p5655
I1
sS'punish'
p5656
I5
sS'rider'
p5657
I7
sS'insur'
p5658
I75
sS'though'
p5659
I48
sS'presel'
p5660
I4
sS'carcinoma'
p5661
I6
sS'coil'
p5662
I3
sS'coin'
p5663
I6
sS'three-stag'
p5664
I15
sS'multi-specialti'
p5665
I3
sS'semiot'
p5666
I2
sS'flow'
p5667
I611
sS'polynomial-s'
p5668
I6
sS'freeway'
p5669
I23
sS'pseudo-polynomi'
p5670
I4
sS'declar'
p5671
I11
sS'posted-pric'
p5672
I3
sS'fixed-rout'
p5673
I2
sS'profit-maxim'
p5674
I25
sS'random'
p5675
I566
sS'radii'
p5676
I3
sS'radio'
p5677
I16
sS'diminish'
p5678
I22
sS'radic'
p5679
I22
sS'earth'
p5680
I6
sS'absolut'
p5681
I29
sS'spite'
p5682
I5
sS'configur'
p5683
I146
sS'axiom'
p5684
I17
sS'congruenc'
p5685
I4
sS'measure-valu'
p5686
I6
sS'watch'
p5687
I3
sS'fluid'
p5688
I102
sS'problem-specif'
p5689
I5
sS'report'
p5690
I374
sS'reconstruct'
p5691
I36
sS'incept'
p5692
I2
sS'reengin'
p5693
I2
sS'indifference-zon'
p5694
I2
sS'overgener'
p5695
I1
sS'cell-bas'
p5696
I2
sS'twice'
p5697
I12
sS'buyer-determin'
p5698
I2
sS'bi-direct'
p5699
I3
sS'habit'
p5700
I7
sS'multifunct'
p5701
I4
sS'1960s'
p5702
I3
sS'roadmap'
p5703
I7
sS'resist'
p5704
I22
sS'corrupt'
p5705
I6
sS'sericea'
p5706
I2
sS'expertis'
p5707
I40
sS'on-demand'
p5708
I9
sS'tensor'
p5709
I14
sS'periodic-review'
p5710
I14
sS'databas'
p5711
I89
sS'discoveri'
p5712
I46
sS'outstand'
p5713
I22
sS'approach'
p5714
I2483
sS'weak'
p5715
I63
sS'southeast'
p5716
I3
sS'wear'
p5717
I2
sS'news'
p5718
I22
sS'multi-sensor'
p5719
I5
sS'protect'
p5720
I142
sS'acoust'
p5721
I6
sS'irregular'
p5722
I16
sS'fault'
p5723
I48
sS'facet'
p5724
I47
sS'stent'
p5725
I5
sS'tttplibzibd'
p5726
I2
sS'recircul'
p5727
I4
sS'prisonersdilemma'
p5728
I1
sS'precedence-constrain'
p5729
I2
sS'smuggler'
p5730
I9
sS'processor-shar'
p5731
I1
sS'multi-criteria'
p5732
I34
sS'trust'
p5733
I47
sS'beneficiari'
p5734
I3
sS'beef'
p5735
I3
sS'accumul'
p5736
I21
sS'formulari'
p5737
I11
sS'link-bas'
p5738
I4
sS'decison'
p5739
I1
sS'30-day'
p5740
I2
sS'uncommon'
p5741
I3
sS'craft'
p5742
I2
sS'catch'
p5743
I3
sS'snipe'
p5744
I2
sS'pre-market'
p5745
I1
sS'lessen'
p5746
I6
sS'n'
I114
sS'lesser'
p5747
I5
sS'dashboard'
p5748
I2
sS'pharmaci'
p5749
I11
sS'wireless-equip'
p5750
I2
sS'pyramid'
p5751
I1
sS'need'
p5752
I648
sS'inpati'
p5753
I39
sS'inventori'
p5754
I1029
sS'suggest'
p5755
I454
sS'higher-dimension'
p5756
I4
sS'utilitarian'
p5757
I2
sS'drawback'
p5758
I22
sS'80000'
p5759
I3
sS'complet'
p5760
I290
sS'pick'
p5761
I59
sS'buyback'
p5762
I8
sS'portal'
p5763
I8
sS'unimodular'
p5764
I4
sS're-identif'
p5765
I1
sS'redefin'
p5766
I4
sS'winner-determin'
p5767
I3
sS'aisl'
p5768
I19
sS'greatest'
p5769
I23
sS'everyth'
p5770
I3
sS'behavior-driven'
p5771
I1
sS'laptop'
p5772
I6
sS'project-by-project'
p5773
I3
sS'expos'
p5774
I37
sS'interfer'
p5775
I22
sS'conjug'
p5776
I2
sS'expon'
p5777
I2
sS'explanatori'
p5778
I16
sS'gave'
p5779
I11
sS'lower-level'
p5780
I12
sS'regime-switch'
p5781
I6
sS'disposit'
p5782
I10
sS'stationar'
p5783
I3
sS'donat'
p5784
I35
sS'technology-en'
p5785
I2
sS'rumor'
p5786
I2
sS'apart'
p5787
I4
sS'gift'
p5788
I10
sS'nurse-pati'
p5789
I2
sS'arbitrari'
p5790
I70
sS'55'
p5791
I5
sS'54'
p5792
I2
sS'57'
p5793
I4
sS'50'
p5794
I38
sS'53'
p5795
I4
sS'52'
p5796
I4
sS'unstabl'
p5797
I8
sS'mosquito'
p5798
I3
sS'contradict'
p5799
I9
sS'delinqu'
p5800
I6
sS'hyperpath'
p5801
I3
sS'zoom'
p5802
I1
sS'turnover-bas'
p5803
I2
sS'panelist'
p5804
I28
sS'indirect'
p5805
I31
sS'cooper'
p5806
I144
sS'reinvest'
p5807
I5
sS'ice'
p5808
I1
sS'convict'
p5809
I2
sS'423'
p5810
I2
sS'core'
p5811
I100
sS'tour'
p5812
I53
sS'corn'
p5813
I11
sS'subspac'
p5814
I23
sS'cork'
p5815
I1
sS'discount'
p5816
I185
sS'chapter'
p5817
I13
sS'census'
p5818
I18
sS'return-on-invest'
p5819
I3
sS'steadili'
p5820
I3
sS'surround'
p5821
I23
sS'contamin'
p5822
I21
sS'rate-modifi'
p5823
I1
sS'plus'
p5824
I31
sS'rigor'
p5825
I47
sS'distance-bas'
p5826
I6
sS'produc'
p5827
I393
sS'low-cost'
p5828
I8
sS'tackl'
p5829
I38
sS'encod'
p5830
I12
sS'entrepreneur'
p5831
I17
sS'coastal'
p5832
I3
sS'cafeteria'
p5833
I1
sS'storag'
p5834
I186
sS'frustrat'
p5835
I4
sS'transform'
p5836
I173
sS'reli'
p5837
I124
sS'seeker'
p5838
I15
sS'multi-factor'
p5839
I9
sS'anti-phish'
p5840
I2
sS'divide-and-conqu'
p5841
I3
sS'origin-destin'
p5842
I16
sS'head'
p5843
I8
sS'medium'
p5844
I26
sS'satisfactorili'
p5845
I3
sS'timescal'
p5846
I2
sS'altogeth'
p5847
I2
sS'epsilon'
p5848
I8
sS'wireless'
p5849
I80
sS'heat'
p5850
I15
sS'hear'
p5851
I4
sS'solar'
p5852
I45
sS'bargain'
p5853
I54
sS'vivo'
p5854
I1
sS'intra-day'
p5855
I9
sS'fundament'
p5856
I110
sS'penal'
p5857
I27
sS'trim'
p5858
I10
sS'uncoop'
p5859
I3
sS'arbitrarili'
p5860
I20
sS'check'
p5861
I28
sS'underutil'
p5862
I7
sS'assembl'
p5863
I110
sS'price-sensit'
p5864
I15
sS'nl'
p5865
I1
sS'nc'
p5866
I1
sS'tip'
p5867
I19
sS'deni'
p5868
I6
sS'junta'
p5869
I2
sS'overbid'
p5870
I3
sS'paperw'
p5871
I2
sS'tie'
p5872
I41
sS'implant'
p5873
I6
sS'depot'
p5874
I41
sS'telemetri'
p5875
I5
sS'node'
p5876
I323
sS'benefici'
p5877
I61
sS'hormon'
p5878
I4
sS'eigenvalu'
p5879
I10
sS'consid'
p5880
I2478
sS'double-sid'
p5881
I7
sS'longev'
p5882
I4
sS'younger'
p5883
I4
sS'intensity-modul'
p5884
I2
sS'faster'
p5885
I64
sS'darunavir'
p5886
I1
sS'multi-criterion'
p5887
I2
sS'withhold'
p5888
I2
sS'serious'
p5889
I28
sS'backward'
p5890
I14
sS'p-robust'
p5891
I2
sS'5'
I36
sS'tamoxifen'
p5892
I1
sS'celebr'
p5893
I4
sS'focus'
p5894
I700
sS'signific'
p5895
I690
sS'stepsiz'
p5896
I3
sS'sub-optim'
p5897
I25
sS'row'
p5898
I19
sS'under-util'
p5899
I3
sS'1942'
p5900
I3
sS'proxim'
p5901
I28
sS'turbin'
p5902
I20
sS'environment'
p5903
I222
sS'quasi'
p5904
I4
sS'cycle-bas'
p5905
I2
sS'multilinear'
p5906
I8
sS'sourc'
p5907
I537
sS'impend'
p5908
I2
sS'triangul'
p5909
I1
sS'unfamiliar'
p5910
I2
sS'feasibl'
p5911
I257
sS'cook'
p5912
I1
sS'cool'
p5913
I5
sS'level'
p5914
I1277
sS'necessit'
p5915
I13
sS'learning-curv'
p5916
I2
sS'shortcom'
p5917
I20
sS'encroach'
p5918
I2
sS'quick'
p5919
I122
sS'lever'
p5920
I17
sS'general-purpos'
p5921
I5
sS'slower'
p5922
I19
sS'trend'
p5923
I117
sS'cyber'
p5924
I33
sS'inland'
p5925
I14
sS'multi-ti'
p5926
I3
sS'takeoff'
p5927
I3
sS'port'
p5928
I85
sS'spectral'
p5929
I21
sS'repli'
p5930
I3
sS'co-loc'
p5931
I3
sS'costless'
p5932
I2
sS'programming-bas'
p5933
I11
sS'multi-st'
p5934
I19
sS'water'
p5935
I85
sS'entertain'
p5936
I20
sS'rethink'
p5937
I2
sS'thirti'
p5938
I7
sS'healthi'
p5939
I16
sS'unnecessarili'
p5940
I2
sS'semant'
p5941
I30
sS'circumv'
p5942
I7
sS'1st'
p5943
I6
sS'conjoint'
p5944
I9
sS'wholesal'
p5945
I80
sS'non-standard'
p5946
I2
sS'memori'
p5947
I34
sS'commodity-independ'
p5948
I3
sS'percept'
p5949
I58
sS'criteria'
p5950
I154
sS'paramet'
p5951
I552
sS'today'
p5952
I51
sS'rate-bas'
p5953
I3
sS'plug'
p5954
I3
sS'capit'
p5955
I136
sS'share'
p5956
I562
sS'kurtosi'
p5957
I3
sS'academician'
p5958
I2
sS'prototyp'
p5959
I46
sS'ventur'
p5960
I45
sS'pre-'
p5961
I6
sS'1961'
p5962
I2
sS'judg'
p5963
I31
sS'flagship'
p5964
I1
sS'minimum'
p5965
I189
sS'inadequ'
p5966
I20
sS'purpos'
p5967
I152
sS'pointwis'
p5968
I2
sS'stream'
p5969
I110
sS'critic'
p5970
I357
sS'time-horizon'
p5971
I3
sS'500000'
p5972
I3
sS'hydrogen'
p5973
I12
sS'counter-terror'
p5974
I5
sS'differenti'
p5975
I206
sS'travel-tim'
p5976
I2
sS'1'
I260
sS'alway'
p5977
I133
sS'vital'
p5978
I36
sS'anyon'
p5979
I7
sS'multi-dimens'
p5980
I3
sS'paramount'
p5981
I2
sS'clone'
p5982
I7
sS'levi'
p5983
I1
sS'eighth'
p5984
I2
sS'classroom'
p5985
I27
sS'practic'
p5986
I719
sS'liquid'
p5987
I76
sS'a-priori'
p5988
I3
sS'inform'
p5989
I1932
sS'preced'
p5990
I29
sS'combin'
p5991
I575
sS'multi-region'
p5992
I2
sS'refund'
p5993
I16
sS'anticip'
p5994
I67
sS'changeov'
p5995
I4
sS'risk-seek'
p5996
I4
sS'microscop'
p5997
I8
sS'postoptim'
p5998
I3
sS'passag'
p5999
I9
sS'relaps'
p6000
I5
sS'platform'
p6001
I137
sS'farmer'
p6002
I27
sS'anecdot'
p6003
I5
sS'occult'
p6004
I4
sS'wagon'
p6005
I3
sS'term'
p6006
I459
sS'name'
p6007
I98
sS'realist'
p6008
I117
sS'advent'
p6009
I4
sS'submodular'
p6010
I25
sS'check-in'
p6011
I5
sS'multiobject'
p6012
I40
sS'bi-partit'
p6013
I1
sS'realism'
p6014
I12
sS'dual-sourc'
p6015
I4
sS'individu'
p6016
I550
sS'culmin'
p6017
I5
sS'begun'
p6018
I18
sS'distributor'
p6019
I31
sS'dispos'
p6020
I23
sS'profit'
p6021
I644
sS'multiparametr'
p6022
I1
sS'infrar'
p6023
I5
sS'ambidexter'
p6024
I3
sS'profil'
p6025
I143
sS'inadequaci'
p6026
I1
sS'factori'
p6027
I38
sS'no-notic'
p6028
I4
sS'migrat'
p6029
I18
sS'hull'
p6030
I63
sS'theori'
p6031
I505
sS'wind-bas'
p6032
I2
sS'prescrib'
p6033
I34
sS'refut'
p6034
I3
sS'synchron'
p6035
I36
sS'refus'
p6036
I5
sS'motion'
p6037
I41
sS'turn'
p6038
I104
sS'best-known'
p6039
I5
sS'meta-analysi'
p6040
I2
sS'place'
p6041
I182
sS'short-notic'
p6042
I2
sS'turf'
p6043
I3
sS'imposs'
p6044
I20
sS'1000'
p6045
I11
sS'win-win'
p6046
I6
sS'suspend'
p6047
I3
sS'legaci'
p6048
I11
sS'suspens'
p6049
I3
sS'array'
p6050
I35
sS'predefin'
p6051
I15
sS'given'
p6052
I634
sS'district'
p6053
I36
sS'dredg'
p6054
I2
sS'trillion'
p6055
I2
sS'plastic'
p6056
I3
sS'assort'
p6057
I138
sS'necessarili'
p6058
I38
sS'circl'
p6059
I12
sS'message-pass'
p6060
I6
sS'white'
p6061
I6
sS'hub'
p6062
I80
sS'cope'
p6063
I27
sS'season'
p6064
I134
sS'copi'
p6065
I12
sS'circumst'
p6066
I36
sS'specifi'
p6067
I130
sS'rehandl'
p6068
I2
sS'holder'
p6069
I12
sS'mixed-effect'
p6070
I2
sS'disequilibrium'
p6071
I3
sS'serv'
p6072
I252
sS'wide'
p6073
I245
sS'production-distribut'
p6074
I4
sS'network-wid'
p6075
I12
sS'r'
I13
sS'balanc'
p6076
I272
sS'posit'
p6077
I330
sS'non-uniqu'
p6078
I5
sS'seri'
p6079
I199
sS'better-forecast'
p6080
I2
sS'pro'
p6081
I4
sS'priority-bas'
p6082
I2
sS'ant'
p6083
I19
sS'scorecard'
p6084
I7
sS'rent'
p6085
I20
sS'burdensom'
p6086
I3
sS'mislead'
p6087
I14
sS'techniqu'
p6088
I866
sS'moreov'
p6089
I3
sS'ideal'
p6090
I40
sS'gantri'
p6091
I5
sS'customer-centr'
p6092
I1
sS'exploratori'
p6093
I14
sS'surg'
p6094
I15
sS'sure'
p6095
I8
sS'value-maxim'
p6096
I2
sS'multipli'
p6097
I26
sS'disjunct'
p6098
I58
sS'seafood'
p6099
I1
sS'adopt'
p6100
I285
sS'non-empti'
p6101
I6
sS'quantiti'
p6102
I271
sS'runtim'
p6103
I5
sS'senior'
p6104
I25
sS'catalyst'
p6105
I3
sS'recipi'
p6106
I11
sS'two-stat'
p6107
I5
sS'uncondit'
p6108
I3
sS'batch-to-batch'
p6109
I2
sS'cheat'
p6110
I2
sS'cheap'
p6111
I9
sS'recombin'
p6112
I7
sS'two-stag'
p6113
I190
sS'southwestern'
p6114
I1
sS'multicut'
p6115
I2
sS'nadir'
p6116
I4
sS'interperson'
p6117
I3
sS'favor'
p6118
I63
sS'state'
p6119
I481
sS'crime'
p6120
I21
sS'multiscal'
p6121
I15
sS'analyz'
p6122
I1126
sS'analyt'
p6123
I524
sS'analys'
p6124
I155
sS'optmodel'
p6125
I2
sS'unforese'
p6126
I2
sS'viewpoint'
p6127
I17
sS'nobl'
p6128
I1
sS'multi-compart'
p6129
I1
sS'tailor'
p6130
I31
sS'reveal'
p6131
I168
sS'inter-rel'
p6132
I3
sS'aluminum'
p6133
I5
sS'outperform'
p6134
I115
sS'sibset'
p6135
I3
sS'dramat'
p6136
I55
sS'intrins'
p6137
I26
sS'irrespect'
p6138
I5
sS'service-bas'
p6139
I1
sS'aris'
p6140
I241
sS'splittabl'
p6141
I1
sS'detect'
p6142
I330
sS'review'
p6143
I298
sS'voluntari'
p6144
I15
sS'three-step'
p6145
I3
sS'presal'
p6146
I2
sS'caregiv'
p6147
I6
sS'cycl'
p6148
I157
sS'free-rid'
p6149
I12
sS'come'
p6150
I97
sS'up-to-d'
p6151
I5
sS'reaction'
p6152
I31
sS'region'
p6153
I318
sS'job'
p6154
I320
sS'contract'
p6155
I793
sS'emit'
p6156
I6
sS'railway'
p6157
I53
sS'tradeoff'
p6158
I159
sS'rescal'
p6159
I1
sS'inspir'
p6160
I28
sS'period'
p6161
I573
sS'locationpr'
p6162
I1
sS'60'
p6163
I13
sS'sequence-pair'
p6164
I2
sS'63'
p6165
I2
sS'64'
p6166
I2
sS'65'
p6167
I4
sS'subsampl'
p6168
I2
sS'periop'
p6169
I7
sS'endeavor'
p6170
I7
sS'poll'
p6171
I23
sS'coloni'
p6172
I5
sS'single-pric'
p6173
I4
sS'multi-vehicl'
p6174
I2
sS'coupl'
p6175
I83
sS'high-profit'
p6176
I3
sS'bicliqu'
p6177
I2
sS'non-separ'
p6178
I3
sS'far-reach'
p6179
I5
sS'500'
p6180
I19
sS'bypass'
p6181
I8
sS'unfavor'
p6182
I3
sS'impati'
p6183
I31
sS'spirit'
p6184
I7
sS'pilot'
p6185
I40
sS'case'
p6186
I1168
sS'long-dist'
p6187
I3
sS'mount'
p6188
I5
sS'two-class'
p6189
I6
sS'cash'
p6190
I52
sS'cast'
p6191
I19
sS'interconnected'
p6192
I2
sS'refineri'
p6193
I17
sS'anytim'
p6194
I4
sS'author'
p6195
I122
sS'translog'
p6196
I3
sS'trip'
p6197
I67
sS'ecolog'
p6198
I10
sS'eventu'
p6199
I21
sS'show-up'
p6200
I7
sS'sub-region'
p6201
I7
sS'week'
p6202
I72
sS'exploration-exploit'
p6203
I2
sS'nest'
p6204
I72
sS'confidenti'
p6205
I13
sS'driver'
p6206
I159
sS'weed'
p6207
I2
sS'driven'
p6208
I72
sS'devoid'
p6209
I4
sS'behavior-consist'
p6210
I5
sS'footprint'
p6211
I11
sS'brick-and-mortar'
p6212
I3
sS'moder'
p6213
I71
sS'reliev'
p6214
I5
sS'information-bas'
p6215
I9
sS'justifi'
p6216
I37
sS'without'
p6217
I293
sS'relief'
p6218
I53
sS'model'
p6219
I8622
sS'reward'
p6220
I104
sS'violenc'
p6221
I3
sS'omni-channel'
p6222
I1
sS'kill'
p6223
I14
sS'polish'
p6224
I2
sS'feedforward'
p6225
I2
sS'decision-depend'
p6226
I1
sS'hint'
p6227
I3
sS'except'
p6228
I25
sS'pallet'
p6229
I5
sS'nanoparticl'
p6230
I12
sS'group-buy'
p6231
I2
sS'vulner'
p6232
I68
sS'disrupt'
p6233
I291
sS'multi-row'
p6234
I2
sS'sum-of-ratio'
p6235
I1
sS'single-period'
p6236
I20
sS'quick-respons'
p6237
I2
sS'productservic'
p6238
I6
sS'joint-ventur'
p6239
I3
sS'psychosoci'
p6240
I2
sS'over-the-count'
p6241
I2
sS'realtim'
p6242
I5
sS'fractil'
p6243
I3
sS'single-row'
p6244
I4
sS'tower'
p6245
I13
sS'rollov'
p6246
I8
sS'deduct'
p6247
I2
sS'hydraul'
p6248
I2
sS'constant-stress'
p6249
I3
sS'slice'
p6250
I7
sS'mood'
p6251
I6
sS'non-concav'
p6252
I3
sS'easili'
p6253
I82
sS'landscap'
p6254
I30
sS'subproblem'
p6255
I77
sS'intract'
p6256
I53
sS'e-retail'
p6257
I8
sS'keyston'
p6258
I2
sS'complic'
p6259
I111
sS'optima'
p6260
I14
sS'business-to-busi'
p6261
I5
sS'immun'
p6262
I26
sS'single-item'
p6263
I12
sS'inspect'
p6264
I78
sS'deton'
p6265
I4
sS'productioninventori'
p6266
I3
sS'time-tradeoff'
p6267
I1
sS'mixed-strategi'
p6268
I3
sS'stand'
p6269
I33
sS'2x2'
p6270
I3
sS'accredit'
p6271
I5
sS'routin'
p6272
I48
sS'pick-up'
p6273
I16
sS'garner'
p6274
I6
sS'high-stak'
p6275
I2
sS'ranking-and-select'
p6276
I2
sS'stockout'
p6277
I23
sS'unconvent'
p6278
I6
sS'flowshop'
p6279
I9
sS'multi-market'
p6280
I1
sS'strict'
p6281
I39
sS'fisheri'
p6282
I1
sS'interfac'
p6283
I81
sS'single-suppli'
p6284
I3
sS'hard'
p6285
I109
sS'polytop'
p6286
I62
sS'tupl'
p6287
I4
sS'finite-st'
p6288
I3
sS'regard'
p6289
I182
sS'concess'
p6290
I5
sS'amongst'
p6291
I14
sS'cabinet'
p6292
I1
sS'diffus'
p6293
I140
sS'realli'
p6294
I17
sS'illus'
p6295
I3
sS'longer'
p6296
I66
sS'grasp'
p6297
I2
sS'cbc'
p6298
I1
sS're-bal'
p6299
I3
sS'felic'
p6300
I2
sS'intro'
p6301
I2
sS'readmiss'
p6302
I19
sS'encompass'
p6303
I15
sS'rearrang'
p6304
I3
sS'incorrect'
p6305
I15
sS'pre-season'
p6306
I2
sS'compel'
p6307
I11
sS'multiclass'
p6308
I12
sS'compet'
p6309
I300
sS'piraci'
p6310
I23
sS'discours'
p6311
I3
sS'symbol'
p6312
I16
sS'briefli'
p6313
I26
sS'decommiss'
p6314
I4
sS'patient-specif'
p6315
I7
sS'unbalanc'
p6316
I5
sS'directori'
p6317
I3
sS'invest'
p6318
I688
sS'potenti'
p6319
I616
sS'apparel'
p6320
I5
sS'degrad'
p6321
I106
sS'assimil'
p6322
I6
sS'lack'
p6323
I100
sS'scalar'
p6324
I6
sS'coach'
p6325
I8
sS'project-bas'
p6326
I2
sS'abil'
p6327
I209
sS'follow'
p6328
I288
sS'long-run'
p6329
I44
sS'settlement'
p6330
I6
sS'dairi'
p6331
I1
sS'program'
p6332
I2004
sS'transaction-level'
p6333
I2
sS'cycle-tim'
p6334
I4
sS'neglig'
p6335
I5
sS'woman'
p6336
I5
sS'semi-analyt'
p6337
I2
sS'quality-adjust'
p6338
I9
sS'far'
p6339
I51
sS'datum'
p6340
I3
sS'shelv'
p6341
I5
sS'worst'
p6342
I43
sS'failur'
p6343
I249
sS'fab'
p6344
I10
sS'ticket'
p6345
I81
sS'taxi-out'
p6346
I5
sS'induct'
p6347
I15
sS'list'
p6348
I115
sS'on-cal'
p6349
I1
sS'paralleliz'
p6350
I1
sS'repurchas'
p6351
I2
sS'highway'
p6352
I38
sS'annealing-bas'
p6353
I2
sS'align'
p6354
I66
sS'synergi'
p6355
I14
sS'rideshar'
p6356
I9
sS'ten'
p6357
I25
sS'extraordinari'
p6358
I3
sS'unsatisfi'
p6359
I9
sS'built-in'
p6360
I5
sS'labor-mix'
p6361
I3
sS'biolog'
p6362
I66
sS'pressur'
p6363
I41
sS'design'
p6364
I1759
sS'pre-pack'
p6365
I3
sS'intra-criteria'
p6366
I2
sS'belief'
p6367
I71
sS'higher-ord'
p6368
I4
sS'what'
p6369
I4
sS'typolog'
p6370
I7
sS'sub'
p6371
I8
sS'sum'
p6372
I86
sS'brief'
p6373
I34
sS'overload'
p6374
I24
sS'version'
p6375
I183
sS'ozon'
p6376
I2
sS'intersect'
p6377
I56
sS'deepli'
p6378
I5
sS'discern'
p6379
I4
sS'health-car'
p6380
I7
sS'non-coop'
p6381
I15
sS'non-equilibrium'
p6382
I1
sS'behaviour'
p6383
I27
sS'microdata'
p6384
I3
sS'single-unit'
p6385
I4
sS'deadhead'
p6386
I7
sS'magnitud'
p6387
I61
sS'patient-level'
p6388
I3
sS'overfir'
p6389
I2
sS'overfit'
p6390
I5
sS'heurist'
p6391
I671
sS'motif'
p6392
I4
sS'proceed'
p6393
I15
sS'coverag'
p6394
I115
sS'autonom'
p6395
I38
sS'minor'
p6396
I19
sS'flat'
p6397
I11
sS'flaw'
p6398
I5
sS'community-bas'
p6399
I10
sS'phenomen'
p6400
I1
sS'materiel'
p6401
I3
sS'probabilist'
p6402
I172
sS'disutil'
p6403
I17
sS'stick'
p6404
I3
sS'time-subordin'
p6405
I2
sS'known'
p6406
I360
sS'high-technolog'
p6407
I2
sS'ensu'
p6408
I5
sS'berth'
p6409
I14
sS'long-rang'
p6410
I1
sS'valuabl'
p6411
I78
sS'outlin'
p6412
I68
sS'caveat'
p6413
I2
sS'v'
I5
sS'multi-ag'
p6414
I18
sS'jeopard'
p6415
I2
sS'laypeopl'
p6416
I2
sS'struggl'
p6417
I20
sS'near-miss'
p6418
I11
sS'cours'
p6419
I247
sS'court'
p6420
I4
sS'goal'
p6421
I364
sS'divid'
p6422
I28
sS'rather'
p6423
I107
sS'divis'
p6424
I43
sS'scienc'
p6425
I117
sS'snapshot'
p6426
I2
sS'infecti'
p6427
I49
sS'resourc'
p6428
I900
sS'algebra'
p6429
I44
sS'trial-and-error'
p6430
I5
sS'reflect'
p6431
I90
sS'catalog'
p6432
I2
sS'short'
p6433
I123
sS'finite-horizon'
p6434
I25
sS'human-cent'
p6435
I2
sS'ambigu'
p6436
I47
sS'caus'
p6437
I197
sS'inter-firm'
p6438
I7
sS'shore'
p6439
I2
sS'shade'
p6440
I3
sS'ridership'
p6441
I7
sS'multivari'
p6442
I86
sS'cartridg'
p6443
I1
sS'underrepres'
p6444
I5
sS'mission'
p6445
I58
sS'n-retail'
p6446
I1
sS'isnt'
p6447
I3
sS'scientist'
p6448
I12
sS'reconnect'
p6449
I2
sS'50000'
p6450
I3
sS'style'
p6451
I26
sS'resort'
p6452
I11
sS'reactanc'
p6453
I3
sS'soccer'
p6454
I10
sS'might'
p6455
I131
sS'alter'
p6456
I37
sS'return'
p6457
I340
sS'hunter'
p6458
I3
sS'arbitrageur'
p6459
I5
sS'framework'
p6460
I1066
sS'shopbot'
p6461
I3
sS'bigger'
p6462
I1
sS'demand-bas'
p6463
I2
sS'mathematician'
p6464
I7
sS's-t'
p6465
I8
sS'refresh'
p6466
I3
sS'undertak'
p6467
I16
sS'friendship'
p6468
I7
sS'truncat'
p6469
I23
sS'weight'
p6470
I279
sS'unilater'
p6471
I4
sS'linkag'
p6472
I21
sS'expect'
p6473
I723
sS'inflict'
p6474
I3
sS'endow'
p6475
I13
sS'alcohol'
p6476
I2
sS'respiratori'
p6477
I5
sS'health'
p6478
I388
sS'hill'
p6479
I1
sS'shipment'
p6480
I74
sS'conditional-value-at-risk'
p6481
I1
sS'fiber'
p6482
I6
sS'solvent'
p6483
I1
sS'advanc'
p6484
I302
sS'differ'
p6485
I1728
sS'teach'
p6486
I126
sS'lag'
p6487
I20
sS'thread'
p6488
I11
sS'neurolog'
p6489
I5
sS'misreport'
p6490
I3
sS'perhap'
p6491
I8
sS'control-limit'
p6492
I3
sS'circuit'
p6493
I22
sS'feed'
p6494
I17
sS'feel'
p6495
I8
sS'well-known'
p6496
I82
sS'sailor'
p6497
I3
sS'meta-control'
p6498
I3
sS'construct'
p6499
I471
sS'checkpoint'
p6500
I8
sS'script'
p6501
I10
sS'decision-mak'
p6502
I195
sS'interact'
p6503
I482
sS'price-depend'
p6504
I6
sS'swarm'
p6505
I8
sS'stori'
p6506
I19
sS'storm'
p6507
I11
sS'store'
p6508
I209
sS'imperfect'
p6509
I52
sS'option'
p6510
I542
sS'checklist'
p6511
I3
sS'hotel'
p6512
I56
sS'wait-or-buy'
p6513
I3
sS'branch-and-cut'
p6514
I66
sS'twenti'
p6515
I6
sS'aeronaut'
p6516
I3
sS'albeit'
p6517
I6
sS'kind'
p6518
I58
sS'cash-constrain'
p6519
I5
sS'doubli'
p6520
I9
sS'postul'
p6521
I7
sS'remot'
p6522
I18
sS'exempt'
p6523
I3
sS'remov'
p6524
I72
sS'kink'
p6525
I5
sS'riski'
p6526
I35
sS'architect'
p6527
I2
sS'postur'
p6528
I4
sS'atmospher'
p6529
I6
sS'exert'
p6530
I36
sS'strengthen'
p6531
I39
sS'best-respons'
p6532
I5
sS'overwork'
p6533
I3
sS'expir'
p6534
I15
sS'dedic'
p6535
I53
sS'semi-continu'
p6536
I13
sS'remodel'
p6537
I3
sS'smallpox'
p6538
I4
sS'mixtur'
p6539
I61
sS'violat'
p6540
I48
sS'backfir'
p6541
I3
sS'middlemen'
p6542
I1
sS'skillset'
p6543
I6
sS'multi-processor'
p6544
I1
sS'supercomput'
p6545
I4
sS'donor'
p6546
I35
sS'eff'
p6547
I3
sS'electrif'
p6548
I2
sS'wildlif'
p6549
I3
sS'reach'
p6550
I79
sS'cointegr'
p6551
I2
sS'react'
p6552
I28
sS'75'
p6553
I8
sS'72'
p6554
I4
sS'conic'
p6555
I49
sS'living-donor'
p6556
I6
sS'discrete-valu'
p6557
I1
sS'pre-exist'
p6558
I2
sS'destruct'
p6559
I10
sS'submodel'
p6560
I7
sS'barter'
p6561
I9
sS'multiple-period'
p6562
I6
sS'non-commerci'
p6563
I4
sS'second-stag'
p6564
I8
sS'feedstock'
p6565
I16
sS'penalti'
p6566
I117
sS'dial-a-rid'
p6567
I1
sS'spokesof'
p6568
I3
sS'buy-it-now'
p6569
I3
sS'stipul'
p6570
I4
sS'hip'
p6571
I3
sS'hit'
p6572
I18
sS'financ'
p6573
I104
sS'swing'
p6574
I6
sS'sub-gradi'
p6575
I4
sS'longest'
p6576
I10
sS'sizabl'
p6577
I4
sS'risk-pool'
p6578
I7
sS'continuum'
p6579
I21
sS'rainfal'
p6580
I2
sS'well-suit'
p6581
I4
sS'statist'
p6582
I406
sS'wrote'
p6583
I5
sS'certif'
p6584
I43
sS'art'
p6585
I37
sS'detail'
p6586
I197
sS'proactiv'
p6587
I32
sS'arc'
p6588
I74
sS'signifi'
p6589
I3
sS'barg'
p6590
I11
sS'disadvantag'
p6591
I24
sS'arm'
p6592
I25
sS'just-in-tim'
p6593
I2
sS'learnt'
p6594
I7
sS'counterterror'
p6595
I5
sS're-schedul'
p6596
I3
sS'in-memori'
p6597
I5
sS'overtim'
p6598
I36
sS'various'
p6599
I603
sS'nontrivi'
p6600
I7
sS'downturn'
p6601
I1
sS'viewership'
p6602
I2
sS'solo'
p6603
I3
sS'coeffici'
p6604
I80
sS'induc'
p6605
I108
sS'sole'
p6606
I19
sS'aspir'
p6607
I10
sS'outfit'
p6608
I3
sS'lifelin'
p6609
I2
sS'succeed'
p6610
I8
sS'solv'
p6611
I1492
sS'inertia'
p6612
I5
sS'c'
I20
sS'license'
p6613
I1
sS'oversea'
p6614
I5
sS'bandit'
p6615
I39
sS'context'
p6616
I345
sS'multi-class'
p6617
I14
sS'bid-pric'
p6618
I22
sS'distress'
p6619
I18
sS'sweep'
p6620
I2
sS'residu'
p6621
I52
sS'mistak'
p6622
I4
sS'turnov'
p6623
I14
sS'java'
p6624
I2
sS'overlook'
p6625
I7
sS'tabu-search'
p6626
I2
sS'due'
p6627
I431
sS'regression-bas'
p6628
I4
sS'make-up'
p6629
I3
sS'brick'
p6630
I5
sS'strategi'
p6631
I1399
sS'flight'
p6632
I255
sS'1950s'
p6633
I3
sS'uninform'
p6634
I9
sS'co-authorship'
p6635
I7
sS'demand'
p6636
I2075
sS'instructor'
p6637
I20
sS'heighten'
p6638
I3
sS'pedestrian'
p6639
I10
sS'frozen'
p6640
I4
sS'batch'
p6641
I76
sS'behavior'
p6642
I847
sS'sonic'
p6643
I2
sS'headway'
p6644
I9
sS'rig'
p6645
I2
sS'multi-commod'
p6646
I24
sS'constant-ord'
p6647
I2
sS'twofold'
p6648
I2
sS'minim'
p6649
I1008
sS're-design'
p6650
I7
sS'lengthi'
p6651
I2
sS'9'
I11
sS'higher'
p6652
I314
sS'wherea'
p6653
I56
sS'cement'
p6654
I1
sS'covari'
p6655
I52
sS'security-constrain'
p6656
I3
sS'flown'
p6657
I4
sS'impedi'
p6658
I4
sS'robust'
p6659
I595
sS'provabl'
p6660
I34
sS'lower'
p6661
I357
sS'earmark'
p6662
I10
sS'machineri'
p6663
I8
sS'discourag'
p6664
I9
sS'disburs'
p6665
I8
sS'manhol'
p6666
I4
sS'two-step'
p6667
I12
sS'propos'
p6668
I2528
sS'knot'
p6669
I3
sS'non-exist'
p6670
I3
sS'collabor'
p6671
I236
sS'relianc'
p6672
I12
sS'regardless'
p6673
I15
sS'continent'
p6674
I3
sS'tablet'
p6675
I8
sS'stimul'
p6676
I22
sS'theoret'
p6677
I319
sS'contractor'
p6678
I11
sS'information-intens'
p6679
I3
sS'theorem'
p6680
I56
sS'forward-look'
p6681
I21
sS'finder'
p6682
I3
sS'change-point'
p6683
I8
sS'vendor'
p6684
I96
sS'viabil'
p6685
I27
sS'discriminatori'
p6686
I19
sS'interorganiz'
p6687
I4
sS'eco-label'
p6688
I3
sS'confront'
p6689
I8
sS'earthquak'
p6690
I18
sS'collect'
p6691
I372
sS'counterfactu'
p6692
I11
sS'nonrenew'
p6693
I2
sS'shelflif'
p6694
I4
sS'visibl'
p6695
I28
sS'play'
p6696
I189
sS'global'
p6697
I350
sS'understood'
p6698
I27
sS'experienti'
p6699
I6
sS'cyclic-ord'
p6700
I1
sS'surpris'
p6701
I50
sS'affili'
p6702
I8
sS'multi-portfolio'
p6703
I2
sS'vulgari'
p6704
I4
sS'vantag'
p6705
I3
sS'seller'
p6706
I225
sS'wrong'
p6707
I14
sS'n-step'
p6708
I9
sS'product-lin'
p6709
I5
sS'graph-theoret'
p6710
I11
sS'individual-bas'
p6711
I1
sS'viabl'
p6712
I23
sS'usersonlin'
p6713
I2
sS'tonnag'
p6714
I4
sS'cautious'
p6715
I2
sS'state-of-the-art'
p6716
I42
sS'in-pati'
p6717
I4
sS'glaucoma'
p6718
I4
sS'entrepreneuri'
p6719
I23
sS'backlog'
p6720
I36
sS'dialog'
p6721
I3
sS'multirespons'
p6722
I2
sS'prostat'
p6723
I17
sS'gamma'
p6724
I11
sS'emphasi'
p6725
I45
sS'non-compensatori'
p6726
I2
sS'digraph'
p6727
I2
sS'customer-cent'
p6728
I1
sS'announc'
p6729
I90
sS'intraday'
p6730
I2
sS'canal'
p6731
I3
sS'wildfir'
p6732
I20
sS'question'
p6733
I311
sS'pre-alloc'
p6734
I1
sS'fast'
p6735
I110
sS'adjac'
p6736
I29
sS'arithmet'
p6737
I9
sS'etch'
p6738
I3
sS'styliz'
p6739
I38
sS'ingredi'
p6740
I13
sS'uncontrol'
p6741
I6
sS'delta'
p6742
I3
sS'crane'
p6743
I28
sS'consist'
p6744
I388
sS'caller'
p6745
I18
sS'colloquia'
p6746
I1
sS'reorder'
p6747
I14
sS'highlight'
p6748
I163
sS'z'
I1
sS'x-ray'
p6749
I1
sS'humanitarian'
p6750
I53
sS'multi-round'
p6751
I2
sS'constriant'
p6752
I1
sS'spontan'
p6753
I6
sS'nich'
p6754
I9
sS'multiserv'
p6755
I4
sS'flowgraph'
p6756
I1
sS'nice'
p6757
I13
sS'ecosystem'
p6758
I29
sS'missil'
p6759
I8
sS'introduc'
p6760
I695
sS'meaning'
p6761
I30
sS'inter-tempor'
p6762
I9
sS'tripl'
p6763
I8
sS'foundri'
p6764
I1
sS'risk-sensit'
p6765
I6
sS'edg'
p6766
I92
sS'miner'
p6767
I1
sS'game-theoret'
p6768
I58
sS'cross-domain'
p6769
I1
sS'gang'
p6770
I6
sS'mean-devi'
p6771
I1
sS'issuer'
p6772
I1
sS'gold'
p6773
I4
sS'outgo'
p6774
I6
sS'arc-path'
p6775
I3
sS'breach'
p6776
I11
sS'settl'
p6777
I6
sS'mainstream'
p6778
I9
sS'arteri'
p6779
I10
sS'ranking-bas'
p6780
I2
sS'electron'
p6781
I86
sS'multi-sourc'
p6782
I11
sS'electrod'
p6783
I5
sS'relev'
p6784
I136
sS'misplac'
p6785
I5
sS'stratifi'
p6786
I3
sS'dealt'
p6787
I4
sS'pleas'
p6788
I3
sS'malici'
p6789
I11
sS'smaller'
p6790
I87
sS'battl'
p6791
I5
sS'fold'
p6792
I7
sS'helicopt'
p6793
I12
sS'acid'
p6794
I3
sS'two-ag'
p6795
I2
sS'compat'
p6796
I51
sS'undetect'
p6797
I3
sS'compar'
p6798
I1021
sS'mainlin'
p6799
I4
sS'first-ord'
p6800
I28
sS'noncoop'
p6801
I7
sS'blender'
p6802
I3
sS'vibrat'
p6803
I8
sS'chose'
p6804
I5
sS'prosecut'
p6805
I1
sS'cyclist'
p6806
I2
sS'metro'
p6807
I3
sS'larger'
p6808
I85
sS'typic'
p6809
I206
sS'time-consist'
p6810
I10
sS'app'
p6811
I30
sS'inequ'
p6812
I323
sS'apt'
p6813
I4
sS'motor'
p6814
I2
sS'in-app'
p6815
I1
sS'discrete-st'
p6816
I3
sS'high-ord'
p6817
I3
sS'fed'
p6818
I5
sS'fee'
p6819
I51
sS'lotteri'
p6820
I17
sS'pushback'
p6821
I2
sS'haplotyp'
p6822
I2
sS'sort'
p6823
I44
sS'clever'
p6824
I4
sS'sub-problem'
p6825
I27
sS'wargam'
p6826
I3
sS'impress'
p6827
I27
sS'recount'
p6828
I8
sS'women'
p6829
I43
sS'1980s'
p6830
I3
sS'augment'
p6831
I57
sS'midterm'
p6832
I3
sS'stroke'
p6833
I12
sS'high-end'
p6834
I10
sS'counterexampl'
p6835
I2
sS'socioeconom'
p6836
I4
sS'proof'
p6837
I37
sS'object-ori'
p6838
I8
sS'tap'
p6839
I5
sS'patron'
p6840
I9
sS'tax'
p6841
I51
sS'tag'
p6842
I17
sS'proprietari'
p6843
I20
sS'serial'
p6844
I38
sS'counterfeit'
p6845
I6
sS'sip'
p6846
I1
sS'mid-term'
p6847
I2
sS'guru'
p6848
I1
sS'six'
p6849
I29
sS'cardin'
p6850
I29
sS'trust-region'
p6851
I14
sS'end-product'
p6852
I2
sS'instead'
p6853
I64
sS'case-bas'
p6854
I3
sS'sim'
p6855
I1
sS'tension'
p6856
I7
sS'attend'
p6857
I34
sS'outlier'
p6858
I33
sS'trip-bas'
p6859
I5
sS'hazard'
p6860
I95
sS'exemplifi'
p6861
I7
sS'hydrolog'
p6862
I5
sS'attent'
p6863
I128
sS'ethnic'
p6864
I2
sS'crowdsourc'
p6865
I18
sS'multi-scal'
p6866
I4
sS'orchestr'
p6867
I6
sS'light'
p6868
I63
sS'non-cross'
p6869
I1
sS'inter-hub'
p6870
I3
sS'elig'
p6871
I13
sS'call-back'
p6872
I3
sS'elit'
p6873
I2
sS'130'
p6874
I3
sS'cross-market'
p6875
I2
sS'superior'
p6876
I77
sS'co-mov'
p6877
I3
sS'product-level'
p6878
I5
sS'non-tradit'
p6879
I4
sS'ecommerc'
p6880
I5
sS'underpin'
p6881
I4
sS'holiday'
p6882
I6
sS'crash'
p6883
I15
sS'nonneg'
p6884
I27
sS'spatio-tempor'
p6885
I1
sS'investor'
p6886
I96
sS'buckypap'
p6887
I2
sS'profound'
p6888
I7
sS'edit'
p6889
I11
sS'polit'
p6890
I45
sS'related'
p6891
I4
sS'imposit'
p6892
I1
sS'interplay'
p6893
I38
sS'annot'
p6894
I3
sS'82'
p6895
I3
sS'80'
p6896
I14
sS'sojourn'
p6897
I11
sS'86'
p6898
I2
sS'84'
p6899
I2
sS'85'
p6900
I5
sS'sentiment'
p6901
I34
sS'frontier'
p6902
I66
sS'categori'
p6903
I116
sS'disappear'
p6904
I8
sS'postmenopaus'
p6905
I3
sS'defender-attacker-defend'
p6906
I4
sS'item-level'
p6907
I2
sS'york'
p6908
I21
sS'airtank'
p6909
I6
sS'multistart'
p6910
I3
sS'large-s'
p6911
I4
sS'tanker'
p6912
I6
sS'g'
I3
sS'illicit'
p6913
I4
sS'organis'
p6914
I15
sS'pre-entri'
p6915
I5
sS'organiz'
p6916
I137
sS'isocentr'
p6917
I3
sS'single-echelon'
p6918
I5
sS'hitherto'
p6919
I4
sS'symptomat'
p6920
I1
sS'prioriti'
p6921
I123
sS'salient'
p6922
I10
sS'chemotherapi'
p6923
I13
sS'capac'
p6924
I1197
sS'discrete-tim'
p6925
I31
sS'1500'
p6926
I6
sS'expenditur'
p6927
I24
sS'profit-seek'
p6928
I4
sS'shell'
p6929
I3
sS'nurse-to-pati'
p6930
I3
sS'medium-term'
p6931
I4
sS'shelf'
p6932
I18
sS'academi'
p6933
I1
sS'20-year'
p6934
I3
sS'institution'
p6935
I4
sS'richer'
p6936
I6
sS'pre-determin'
p6937
I6
sS'biometr'
p6938
I7
sS'frugal'
p6939
I1
sS's-plex'
p6940
I3
sS'hyper-exponenti'
p6941
I9
sS'reposit'
p6942
I22
sS'favorit'
p6943
I3
sS'drayag'
p6944
I6
sS'vehicle-to-infrastructur'
p6945
I1
sS'coher'
p6946
I41
sS'cohes'
p6947
I16
sS'disjoint'
p6948
I12
sS'contradictori'
p6949
I7
sS'predic'
p6950
I6
sS'hurricane-suppli'
p6951
I1
sS'diverg'
p6952
I15
sS'rout'
p6953
I771
sS'curvilinear'
p6954
I3
sS'satiat'
p6955
I3
sS's-preced'
p6956
I1
sS'divert'
p6957
I8
sS'divers'
p6958
I115
sS'25000'
p6959
I2
sS'combat'
p6960
I26
sS'multitud'
p6961
I7
sS'whp'
p6962
I2
sS'solicit'
p6963
I14
sS'judici'
p6964
I3
sS'class'
p6965
I649
sS'dens'
p6966
I22
sS'pipe'
p6967
I4
sS'risk-tak'
p6968
I6
sS'determin'
p6969
I1011
sS'inexpens'
p6970
I7
sS'one-sid'
p6971
I5
sS'fear'
p6972
I7
sS'eas'
p6973
I21
sS'locat'
p6974
I793
sS'local'
p6975
I363
sS'mean-field'
p6976
I2
sS'cube'
p6977
I5
sS'contribut'
p6978
I248
sS'bio-manufactur'
p6979
I4
sS'block-angular'
p6980
I4
sS'aerodynam'
p6981
I6
sS'spur'
p6982
I4
sS'step-stress'
p6983
I3
sS'unstructur'
p6984
I15
sS'off-lin'
p6985
I9
sS'bisect'
p6986
I2
sS'compliment'
p6987
I2
sS'partit'
p6988
I98
sS'ascertain'
p6989
I5
sS'sediment'
p6990
I4
sS'view'
p6991
I169
sS'supply-chain'
p6992
I12
sS'disastr'
p6993
I4
sS'credibl'
p6994
I18
sS'knowledg'
p6995
I396
sS'longest-queue-first'
p6996
I1
sS'elast'
p6997
I48
sS'dyadic'
p6998
I9
sS'closer'
p6999
I23
sS'biofuel'
p7000
I53
sS'broach'
p7001
I1
sS'genius'
p7002
I3
sS'physiolog'
p7003
I14
sS'entrant'
p7004
I37
sS'closed'
p7005
I2
sS'crude'
p7006
I13
sS'chemic'
p7007
I34
sS'bought'
p7008
I7
sS'non-zero'
p7009
I4
sS'exam'
p7010
I32
sS'amen'
p7011
I13
sS'non-optim'
p7012
I5
sS'entir'
p7013
I108
sS'p2p'
p7014
I3
sS'swift'
p7015
I3
sS'addit'
p7016
I418
sS'event-bas'
p7017
I6
sS'large-scal'
p7018
I233
sS'roof-dual'
p7019
I1
sS'grain'
p7020
I6
sS'committe'
p7021
I29
sS'illiquid'
p7022
I4
sS'articul'
p7023
I13
sS'unclear'
p7024
I11
sS'arriv'
p7025
I434
sS'walk'
p7026
I45
sS'respect'
p7027
I276
sS'trademark'
p7028
I5
sS'compos'
p7029
I26
sS'compon'
p7030
I497
sS'outflow'
p7031
I3
sS'besid'
p7032
I11
sS'protein-protein'
p7033
I3
sS'inbound'
p7034
I28
sS'presenc'
p7035
I193
sS'hand-hygien'
p7036
I2
sS'present'
p7037
I3839
sS'scrutini'
p7038
I4
sS'on-tim'
p7039
I19
sS'vanilla'
p7040
I3
sS'will'
p7041
I26
sS'wild'
p7042
I2
sS'diffusion-sc'
p7043
I3
sS'observ'
p7044
I532
sS'layer'
p7045
I40
sS'r-1'
p7046
I5
sS'customiz'
p7047
I5
sS'relabel'
p7048
I2
sS'thus'
p7049
I141
sS'attribute-bas'
p7050
I2
sS'dual'
p7051
I146
sS'backhaul'
p7052
I3
sS'foreign'
p7053
I27
sS'apprehens'
p7054
I3
sS'antibiot'
p7055
I8
sS'subcontract'
p7056
I5
sS'cross'
p7057
I56
sS'defender-attack'
p7058
I4
sS'member'
p7059
I153
sS'largest'
p7060
I69
sS'trajectory-bas'
p7061
I1
sS'difficult'
p7062
I221
sS'defibril'
p7063
I4
sS'student'
p7064
I272
sS'decoupl'
p7065
I12
sS'pre-pay'
p7066
I3
sS'in-network'
p7067
I3
sS'multi-mod'
p7068
I19
sS'undertaken'
p7069
I16
sS'sporad'
p7070
I4
sS'high-risk'
p7071
I4
sS'obtain'
p7072
I665
sS'replenish'
p7073
I118
sS'mfr'
p7074
I4
sS'heavili'
p7075
I22
sS'biologist'
p7076
I2
sS'simultan'
p7077
I274
sS'sku'
p7078
I1
sS'non-clin'
p7079
I3
sS'rapid'
p7080
I109
sS'sky'
p7081
I2
sS'1958'
p7082
I3
sS'other'
p7083
I121
sS'cultur'
p7084
I67
sS'oilse'
p7085
I2
sS'ski'
p7086
I1
sS'enact'
p7087
I6
sS'branch'
p7088
I143
sS'myth'
p7089
I2
sS'irrevers'
p7090
I9
sS'point-to-point'
p7091
I6
sS'know'
p7092
I104
sS'facial'
p7093
I12
sS'press'
p7094
I8
sS'redesign'
p7095
I32
sS'accru'
p7096
I15
sS'unplan'
p7097
I6
sS'safest'
p7098
I2
sS'reoptim'
p7099
I6
sS'loser'
p7100
I2
sS'non-neg'
p7101
I12
sS'scale-up'
p7102
I10
sS'exceed'
p7103
I65
sS'growth'
p7104
I218
sS'export'
p7105
I20
sS'112'
p7106
I2
sS'leaf'
p7107
I4
sS'lead'
p7108
I644
sS'leak'
p7109
I3
sS'lean'
p7110
I20
sS'thank'
p7111
I2
sS'leas'
p7112
I44
sS'leap'
p7113
I1
sS'leav'
p7114
I49
sS'service-level'
p7115
I15
sS'leader'
p7116
I71
sS'investig'
p7117
I950
sS'throttl'
p7118
I4
sS'obey'
p7119
I2
sS'lost-sal'
p7120
I7
sS'obes'
p7121
I13
sS'interdepend'
p7122
I78
sS'stay'
p7123
I57
sS'join-the-shortest-queu'
p7124
I1
sS'rare'
p7125
I52
sS'column'
p7126
I104
sS'inventory-target'
p7127
I4
sS'multi-disciplinari'
p7128
I5
sS'carrier'
p7129
I154
sS'user-friend'
p7130
I4
sS'disabl'
p7131
I11
sS'owl'
p7132
I3
sS'own'
p7133
I15
sS'owe'
p7134
I2
sS'praction'
p7135
I2
sS'automat'
p7136
I84
sS'warranti'
p7137
I36
sS'automak'
p7138
I6
sS'weather'
p7139
I117
sS'column-gener'
p7140
I9
sS'convexif'
p7141
I7
sS'van'
p7142
I9
sS'platoon'
p7143
I2
sS'egalitarian'
p7144
I2
sS'transfer'
p7145
I124
sS'spiral'
p7146
I3
sS'rudimentari'
p7147
I2
sS'replac'
p7148
I126
sS'consumersprefer'
p7149
I5
sS'tangibl'
p7150
I8
sS'prespecifi'
p7151
I4
sS'made'
p7152
I233
sS'whether'
p7153
I303
sS'injur'
p7154
I2
sS'troubl'
p7155
I3
sS'record'
p7156
I99
sS'value-ad'
p7157
I3
sS'three-tier'
p7158
I6
sS'---'
p7159
I5
sS'multin'
p7160
I11
sS'mutual'
p7161
I47
sS'countermeasur'
p7162
I10
sS'nonperish'
p7163
I3
sS'percent'
p7164
I25
sS'book'
p7165
I145
sS'boom'
p7166
I5
sS'sick'
p7167
I4
sS'disproportion'
p7168
I4
sS'album'
p7169
I8
sS'poverti'
p7170
I6
sS'2-plex'
p7171
I4
sS'untrunc'
p7172
I2
sS'preform'
p7173
I2
sS'low-carbon'
p7174
I2
sS'value-at-risk'
p7175
I16
sS'experienc'
p7176
I52
sS'scientif'
p7177
I43
sS'reliabl'
p7178
I361
sS'emerg'
p7179
I466
sS'auxiliari'
p7180
I13
sS'set-partit'
p7181
I4
sS'multi-scenario'
p7182
I2
sS'invari'
p7183
I26
s.