(dp1
S''
I4
sS'StevenHarrod'
p2
I3
sS'EndreBoros'
p3
I1
sS'ZhiLongChen'
p4
I2
sS'SantanuDey'
p5
I1
sS'SrinageshGavirneni'
p6
I0
sS'JeffLinderoth'
p7
I1
sS'XuanmingSu'
p8
I0
sS'ManuelSosa'
p9
I4
sS'MagedDessouky'
p10
I3
sS'NanYang'
p11
I0
sS'JonathanBard'
p12
I3
sS'JohnTsitsiklis'
p13
I4
sS'AsumanOzdaglar'
p14
I2
sS'JohnFowler'
p15
I1
sS'AndrewMiller'
p16
I1
sS'ChristianTerwiesch'
p17
I4
sS'JudyJin'
p18
I1
sS'DavidCoit'
p19
I1
sS'YaelGrushkaCockayne'
p20
I4
sS'PituMirchandani'
p21
I3
sS'OzalpOzer'
p22
I0
sS'DamianBeil'
p23
I0
sS'SameerHasija'
p24
I0
sS'MarkSquillante'
p25
I3
sS'JongShiPang'
p26
I1
sS'TeodorGabriel'
p27
I3
sS'MozartMenezes'
p28
I3
sS'RobertHampshire'
p29
I3
sS'YueyueFan'
p30
I2
sS'MetinCakanyildirim'
p31
I0
sS'ChelliahSriskandarajah'
p32
I3
sS'NickStreet'
p33
I1
sS'SaifBenjaafar'
p34
I0
sS'WolfgangJank'
p35
I2
sS'TolgaAydinliyim'
p36
I0
sS'JunZhuang'
p37
I2
sS'MaxShen'
p38
I2
sS'ZviDrezner'
p39
I3
sS'SigrunAndradottir'
p40
I3
sS'GuillaumeRoels'
p41
I0
sS'CherylGaimon'
p42
I4
sS'TugrulDaim'
p43
I4
sS'MarcosGoycoolea'
p44
I1
sS'VishalGaur'
p45
I0
sS'GeorgiaPerakis'
p46
I0
sS'SethGuikema'
p47
I2
sS'SenthilVeeraraghavan'
p48
I0
sS'GarudIyengar'
p49
I2
sS'UdayRao'
p50
I4
sS'MirkoKremer'
p51
I0
sS'DavidMorton'
p52
I1
sS'STravis'
p53
I3
sS'TravisWaller'
p54
I3
sS'HariBalasubramanian'
p55
I4
sS'WilliamHart'
p56
I1
sS'MichaelPinedo'
p57
I3
sS'JohnPaulClarke'
p58
I3
sS'VinayakDeshpande'
p59
I2
sS'SerhanZiya'
p60
I4
sS'RakeshNagi'
p61
I3
sS'LukVan'
p62
I2
sS'VivekFarias'
p63
I2
sS'WeiChen'
p64
I2
sS'MustafaAkan'
p65
I2
sS'AssafZeevi'
p66
I0
sS'KevinWood'
p67
I1
sS'YingJuChen'
p68
I0
sS'DanAdelman'
p69
I2
sS'GaneshJanakiraman'
p70
I0
sS'KumarMuthuraman'
p71
I2
sS'XiuliChao'
p72
I0
sS'AvijitMukherjee'
p73
I3
sS'MarkRoberts'
p74
I4
sS'MarielLavieri'
p75
I4
sS'ZhenLiu'
p76
I3
sS'AndrzejRuszczynski'
p77
I1
sS'MichaelFerris'
p78
I1
sS'BertDe'
p79
I2
sS'MarkVan'
p80
I4
sS'FehmiTanrisever'
p81
I2
sS'CynthiaPhillips'
p82
I1
sS'StephenBoyles'
p83
I3
sS'RoshanVengazhiyil'
p84
I1
sS'LiZeng'
p85
I1
sS'RomanKapuscinski'
p86
I0
sS'HayriyeAyhan'
p87
I3
sS'PanosPardalos'
p88
I1
sS'MichaelCarter'
p89
I4
sS'ZeldaZabinsky'
p90
I1
sS'TavaOlsen'
p91
I0
sS'TamerBoyaci'
p92
I0
sS'YanfengOuyang'
p93
I3
sS'MarkLawley'
p94
I4
sS'JimDai'
p95
I3
sS'JianhuiWang'
p96
I2
sS'JasonMerrick'
p97
I4
sS'KayYutChen'
p98
I0
sS'YingdongLu'
p99
I3
sS'FeryalErhun'
p100
I0
sS'RaviSubramanian'
p101
I0
sS'ErinBaker'
p102
I2
sS'AdamWierman'
p103
I2
sS'HareshGurnani'
p104
I0
sS'ShaneHenderson'
p105
I1
sS'GalRaz'
p106
I0
sS'RobertPhillips'
p107
I0
sS'ReneCaldentey'
p108
I0
sS'MorrisCohen'
p109
I0
sS'YuDing'
p110
I1
sS'RussellMeller'
p111
I3
sS'BenjaminHobbs'
p112
I2
sS'HaniMahmassani'
p113
I3
sS'RetsefLevi'
p114
I2
sS'JianjunShi'
p115
I1
sS'EvaK'
p116
I4
sS'DanielBienstock'
p117
I1
sS'PinarKeskinocak'
p118
I4
sS'EricaPlambeck'
p119
I0
sS'GeorgeVairaktarakis'
p120
I3
sS'YongPinZhou'
p121
I2
sS'RamandeepRandhawa'
p122
I0
sS'GustavoVulcano'
p123
I0
sS'NickSahinidis'
p124
I1
sS'KwangJaeKim'
p125
I4
sS'SrinivasPeeta'
p126
I3
sS'CostisMaglaras'
p127
I0
sS'RoyKwon'
p128
I2
sS'RefikSoyer'
p129
I1
sS'SeoungBum'
p130
I1
sS'SheldonJacobson'
p131
I4
sS'AndrewLim'
p132
I2
sS'OguzhanAlagoz'
p133
I4
sS'ErikDemeulemeester'
p134
I3
sS'BenjaminVan'
p135
I2
sS'CathyXia'
p136
I3
sS'UdayShanbhag'
p137
I1
sS'PaatRusmevichientong'
p138
I0
sS'GuanghuiLan'
p139
I1
sS'MartinSavelsbergh'
p140
I3
sS'SumitKunnumkal'
p141
I2
sS'BoZeng'
p142
I1
sS'KippMartin'
p143
I1
sS'SundereshHeragu'
p144
I3
sS'JeanPaulWatson'
p145
I1
sS'JonathanHelm'
p146
I4
sS'MarkHickman'
p147
I3
sS'MichaelZabarankin'
p148
I1
sS'AntonOvchinnikov'
p149
I0
sS'ChristophLoch'
p150
I4
sS'NagiGebraeel'
p151
I1
sS'JanFransoo'
p152
I2
sS'YaozhongWu'
p153
I4
sS'VidyadharKulkarni'
p154
I2
sS'StefanosZenios'
p155
I4
sS'HaoZhang'
p156
I4
sS'CaseyLichtendahl'
p157
I4
sS'VickiBier'
p158
I2
sS'AbdullahKonak'
p159
I3
sS'AnaMuriel'
p160
I4
sS'RajanBatta'
p161
I3
sS'UdayKarmarkar'
p162
I4
sS'HyunSooAhn'
p163
I0
sS'QiangHuang'
p164
I1
sS'HenryLiu'
p165
I3
sS'MarkHansen'
p166
I3
sS'SeyedIravani'
p167
I2
sS'EnnoSiemsen'
p168
I4
sS'JustinRen'
p169
I4
sS'AndresWeintraub'
p170
I1
sS'HalitUster'
p171
I3
sS'StevenKou'
p172
I1
sS'MargaretBrandeau'
p173
I4
sS'SumitSarkar'
p174
I4
sS'Tomvan'
p175
I3
sS'AurelieThiele'
p176
I2
sS'HongWan'
p177
I1
sS'MarceloOlivares'
p178
I4
sS'StevenShechter'
p179
I4
sS'YoungJunSon'
p180
I1
sS'JavierPena'
p181
I1
sS'PeterFrazier'
p182
I1
sS'BennyMantin'
p183
I0
sS'RehaUzsoy'
p184
I2
sS'JunMa'
p185
I1
sS'BurcuKeskin'
p186
I3
sS'ElenaKatok'
p187
I0
sS'VedatVerter'
p188
I4
sS'JulieSwann'
p189
I4
sS'GuillermoGallego'
p190
I0
sS'WardWhitt'
p191
I3
sS'JunZhang'
p192
I0
sS'JeffBan'
p193
I3
sS'SergiyButenko'
p194
I1
sS'ChanghyunKwon'
p195
I3
sS'ArturDubrawski'
p196
I4
sS'EricaKlampfl'
p197
I3
sS'ItirKaraesmen'
p198
I0
sS'TuomasSandholm'
p199
I0
sS'ShabbirAhmed'
p200
I1
sS'IlanLobel'
p201
I0
sS'JohnBirge'
p202
I2
sS'JenniferRyan'
p203
I2
sS'ZMax'
p204
I2
sS'BarisAta'
p205
I2
sS'RobertSwinney'
p206
I0
sS'SatishBukkapatnam'
p207
I1
sS'OmarBesbes'
p208
I0
sS'JeannetteSong'
p209
I0
sS'MaheshNagarajan'
p210
I0
sS'NilayArgon'
p211
I4
sS'AmyWard'
p212
I3
sS'LaurensDebo'
p213
I0
sS'EdwardAnderson'
p214
I4
sS'DavidSimchiLevi'
p215
I2
sS'FelipeCaro'
p216
I0
sS'MohitTawarmalani'
p217
I1
sS'YinyuYe'
p218
I1
sS'PatrickJaillet'
p219
I3
sS'RamGopal'
p220
I4
sS'TaoYao'
p221
I3
sS'DiwakarGupta'
p222
I4
sS'ItaiGurvich'
p223
I2
sS'XinChen'
p224
I2
sS'AnanthRaman'
p225
I0
sS'DavidShmoys'
p226
I2
sS'MichaelJohnson'
p227
I4
sS'AllenHolder'
p228
I1
sS'RichardJohn'
p229
I2
sS'WarrenPowell'
p230
I1
sS'ChristopherTang'
p231
I0
sS'NicholasG'
p232
I2
sS'HuiYang'
p233
I1
sS'BjarniKristjansson'
p234
I1
sS'LeyuanShi'
p235
I1
sS'DevavratShah'
p236
I1
sS'GabrielWeintraub'
p237
I0
sS'DmitryKrass'
p238
I3
sS'NicolaSecomandi'
p239
I2
sS'GreysSosic'
p240
I0
sS'AlanSchellerWolf'
p241
I2
sS'BruceGolden'
p242
I4
sS'AlperAtamturk'
p243
I1
sS'JamesLuedtke'
p244
I1
sS'JeanPhilippeRichard'
p245
I1
sS'HuiWang'
p246
I1
sS'PekkaKorhonen'
p247
I1
sS'MayankSharma'
p248
I3
sS'PaulGriffin'
p249
I4
sS'MarkDaskin'
p250
I3
sS'BoZhang'
p251
I3
sS'AnnaNagurney'
p252
I2
sS'RichardChen'
p253
I3
sS'OzgeSahin'
p254
I0
sS'GerardCachon'
p255
I0
sS'JosephGeunes'
p256
I2
sS'DenisSaure'
p257
I2
sS'VictorMartinez'
p258
I0
sS'AvinashUnnikrishnan'
p259
I3
sS'XiChen'
p260
I1
sS'CiamacMoallemi'
p261
I2
sS'SooHaengCho'
p262
I0
sS'MingHu'
p263
I0
sS'TamsTerlaky'
p264
I1
sS'KaiboWang'
p265
I1
sS'JamesCochran'
p266
I4
sS'EdwinRomeijn'
p267
I4
sS'EsmaGel'
p268
I2
sS'XinWang'
p269
I2
sS'TolgaTezcan'
p270
I3
sS'RobertFourer'
p271
I1
sS'SaravananKesavan'
p272
I0
sS'HuseyinTopaloglu'
p273
I2
sS'MilindDawande'
p274
I2
sS'AdityaJain'
p275
I0
sS'AydinAlptekinoglu'
p276
I0
sS'GinoLim'
p277
I1
sS'SatishUkkusuri'
p278
I3
sS'SridharTayur'
p279
I2
sS'YongpeiGuan'
p280
I1
sS'SinanErzurumlu'
p281
I2
sS'EdwardSewell'
p282
I4
sS'LaurieGarrow'
p283
I2
sS'MichaelBall'
p284
I3
sS'AledaRoth'
p285
I4
sS'KamranPaynabar'
p286
I1
sS'MichelGendreau'
p287
I3
sS'SilaCetinkaya'
p288
I2
sS'RameshJohari'
p289
I0
sS'MingZhao'
p290
I1
sS'TedRalphs'
p291
I1
sS'KevinShang'
p292
I0
sS'MariaMayorga'
p293
I4
sS'FernandoOrdonez'
p294
I3
sS'StanUryasev'
p295
I1
sS'LizhiWang'
p296
I2
sS'LindaGreen'
p297
I4
sS'LisaMaillart'
p298
I4
sS'BerilToktay'
p299
I0
sS'MarkLewis'
p300
I3
sS'AnitaTucker'
p301
I4
sS'ArchisGhate'
p302
I1
sS'GuipingHu'
p303
I2
sS'NanKong'
p304
I4
sS'TheodoreAllen'
p305
I1
sS'EliseMillerHooks'
p306
I3
sS'OlegProkopyev'
p307
I1
sS'PascalVan'
p308
I1
sS'GregZaric'
p309
I4
sS'ZhenyuJames'
p310
I1
sS'YvesSmeers'
p311
I2
sS'OnurBoyabatli'
p312
I0
sS'DavidLovell'
p313
I3
sS'WillemJanvan'
p314
I1
sS'TimothyChan'
p315
I4
sS'GilvanSouza'
p316
I0
sS'RatnaBabu'
p317
I3
sS'ShmuelOren'
p318
I2
sS'YafengYin'
p319
I3
sS'SRaghavan'
p320
I3
sS'BrianDenton'
p321
I4
sS'SteffenRebennack'
p322
I1
sS'AlexandraNewman'
p323
I1
sS'KarenSmilowitz'
p324
I3
sS'AtalayAtasu'
p325
I0
sS'OdedBerman'
p326
I3
sS'MikaelRonnqvist'
p327
I2
sS'ArmannIngolfsson'
p328
I4
sS'VictoriaChen'
p329
I1
sS'MilindSohoni'
p330
I2
sS'DaronAcemoglu'
p331
I2
sS'NanChen'
p332
I1
sS'ShiyuZhou'
p333
I1
sS'XuesongZhou'
p334
I3
sS'VijayMookerjee'
p335
I2
sS'JanVan'
p336
I0
sS'StylianosKavadias'
p337
I4
sS'NitinJoglekar'
p338
I4
sS'IzakDuenyas'
p339
I0
sS'OzlemErgun'
p340
I2
sS'AhtiSalo'
p341
I2
sS'AlanErera'
p342
I3
sS'KathrynStecke'
p343
I0
sS'LeiZhang'
p344
I3
sS'MorArmony'
p345
I3
sS'RobertL'
p346
I1
sS'CynthiaRudin'
p347
I1
sS'SureshSethi'
p348
I0
sS'KayGiesecke'
p349
I1
sS'YuZhang'
p350
I3
sS'WoongheeTim'
p351
I0
sS'AndrewSchaefer'
p352
I4
sS'SaibalRay'
p353
I0
sS'VictorDeMiguel'
p354
I2
sS'DavidBrown'
p355
I1
sS'JamesWilson'
p356
I1
sS'DiegoKlabjan'
p357
I2
sS'YiChangChiu'
p358
I3
sS'RavindraAhuja'
p359
I3
sS'PrashantYadav'
p360
I4
sS'AliAbbas'
p361
I4
sS'KaranGirotra'
p362
I0
sS'GalitShmueli'
p363
I4
sS'ParijatDube'
p364
I2
sS'CynthiaBarnhart'
p365
I3
sS'JayRosenberger'
p366
I1
sS'JiaweiZhang'
p367
I2
sS'AnindyaGhose'
p368
I0
sS'MichaelFu'
p369
I1
sS'SarangDeo'
p370
I4
sS'JohnHooker'
p371
I1
sS'AnanthKrishnamurthy'
p372
I3
sS'LawrenceV'
p373
I2
sS'FugeeTsung'
p374
I1
sS'JeremyMichalek'
p375
I2
sS'JurgenMihm'
p376
I4
sS'EdwardWasil'
p377
I4
sS'JuanPablo'
p378
I1
sS'JoelSokol'
p379
I1
sS'MartinPuterman'
p380
I4
sS'SanjayMehrotra'
p381
I1
sS'VictorAraman'
p382
I0
sS'SuvrajeetSen'
p383
I1
sS'WedadElmaghraby'
p384
I0
sS'VolodymyrBabich'
p385
I0
sS'OpherBaron'
p386
I2
sS'TerryFriesz'
p387
I3
sS'Garrettvan'
p388
I0
sS'SridharSeshadri'
p389
I0
sS'NingCai'
p390
I1
sS'EvaLee'
p391
I4
sS'MyongK'
p392
I1
sS'YaoZhao'
p393
I2
sS'ElifAkcali'
p394
I4
sS'EllisJohnson'
p395
I3
sS'VadimLinetsky'
p396
I1
sS'YongTan'
p397
I4
sS'YusenXia'
p398
I0
sS'DimitrisBertsimas'
p399
I1
sS'JohnCarlsson'
p400
I3
sS'GokerAydin'
p401
I0
sS'LewisNtaimo'
p402
I1
sS'MelvynSim'
p403
I1
sS'CarriChan'
p404
I4
sS'HeatherRosoff'
p405
I2
sS'JCole'
p406
I1
sS'PanosKouvelis'
p407
I0
sS'HaitaoLiao'
p408
I1
sS'HauL'
p409
I0
sS'AmitabhSinha'
p410
I0
sS'GuzinBayraksan'
p411
I1
sS'IllyaHicks'
p412
I1
sS'SenaySolak'
p413
I3
sS'JayashankarSwaminathan'
p414
I0
sS'BarrettThomas'
p415
I3
sS'MichaelLim'
p416
I2
sS'VladimirBoginski'
p417
I1
sS'CherylDruehl'
p418
I4
sS'SoulaymaneKachani'
p419
I0
sS'FuqiangZhang'
p420
I0
sS'AmyCohn'
p421
I3
sS'GeorgeNemhauser'
p422
I1
sS'SiriphongLawphongpanich'
p423
I3
sS'JyrkiWallenius'
p424
I1
sS'MarkFerguson'
p425
I0
sS'GadAllon'
p426
I0
sS'LauraMcLay'
p427
I4
sS'DanZhang'
p428
I2
sS'YunFong'
p429
I3
sS'JosephMilner'
p430
I0
sS'SergueiNetessine'
p431
I0
sS'JoseBlanchet'
p432
I1
sS'KarthikRamachandran'
p433
I0
sS'SiqianShen'
p434
I3
sS'AchalBassamboo'
p435
I0
s.